i/o devices used that are not listed in how to use the NOVA computer:
0
2
4
5

0000 663f   HALT
0001 2003   LDA 0 3
0002 4000   STA 0 0
0003 663f   HALT
0004 0000   JMP 0
0005 0000   JMP 0
0006 0000   JMP 0
0007 0000   JMP 0
0008 0000   JMP 0
0009 0000   JMP 0
000a 0000   JMP 0
000b 0000   JMP 0
000c 0000   JMP 0
000d 0000   JMP 0
000e 0000   JMP 0
000f 0000   JMP 0

; auto inc pointers
0010 0000   JMP 0
0011 0000   JMP 0
0012 0000   JMP 0
0013 0000   JMP 0
0014 0000   JMP 0
0015 0000   JMP 0
0016 0000   JMP 0
0017 0000   JMP 0

; auto dec pointers
0018 0000   JMP 0
0019 0000   JMP 0
001a 0000   JMP 0
001b 0000   JMP 0
001c 0000   JMP 0
001d 0000   JMP 0
001e 0000   JMP 0
001f 0000   JMP 0

jms @40 01
0020 0c5c   JMS @5c
0021 0074   
0022 002a   
0023 0005   
0024 0441   JMP @41

jms @40 02
0025 0c5c   JMS @5c
0026 002a   
0027 0074   
0028 0005   
0029 0441   JMP @41

; data block copied/restored above
002a 00d3   JMP d3
002b 0000   JMP 0
002c 00d3   JMP d3
002d 0000   JMP 0
002e ffff   AND#S 3 3 sbn
002f 0000   JMP 0
0030 fd00   SUB 3 3
0031 5893   STA 3 93
0032 5892   STA 3 92
0033 a200   MOV 1 0
0034 0435   JMP @35
0035 0a74   JMS ac2+74
0036 0000   JMP 0
0037 0014   JMP 14
0038 fd00   SUB 3 3
0039 5893   STA 3 93
003a 5892   STA 3 92
003b 043c   JMP @3c
003c 0a7f   JMS ac2+7f
003d 0318   JMP ac3+18
003e 01c0   ; function pointer; multiply routine
003f 01cb   ; function pointer; divide routine
0040 01b2   ; function pointer; system call (par)
0041 01ba   ; return address
0042 01bc   ; alternate return address
0043 0176   ; function pointer (par)
0044 0177   ; function pointer (par)
0045 ffff   AND#S 3 3 sbn
0046 01d9   JMP pc-27 ; 1f
0047 0002   JMP 2
0048 0003   JMP 3
0049 0004   JMP 4
004a 0005   JMP 5
004b 0006   JMP 6
004c 0007   JMP 7
004d 000a   JMP a
004e 001b   JMP 1b
004f 0036   JMP 36
0050 003f   JMP 3f
0051 0040   JMP 40
0052 007f   JMP 7f
0053 0080   JMP 80
0054 00c0   JMP c0
0055 00c8   JMP c8
0056 00ff   JMP ff
0057 0100   JMP pc+0 ; 57
0058 0054   JMP 54
0059 0362   JMP ac3+62
005a 0378   JMP ac3+78
005b 0915   ; function pointer jms @5b memclr(par, par)
005c 091e   ; function pointer jms @5c memcpy(par, par, par)
005d 0000   JMP 0
005e 0000   JMP 0
005f 030b   JMP ac3+b ; form of stack pointer
0060 0078   JMP 78
0061 0001   JMP 1
0062 0014   JMP 14
0063 0000   JMP 0
0064 0008   JMP 8
0065 000c   JMP c
0066 001e   JMP 1e
0067 0001   JMP 1
0068 0001   JMP 1
0069 0000   JMP 0
006a 004f   JMP 4f
006b 0005   JMP 5
006c 02c0   JMP ac2-40
006d 0000   JMP 0
006e 0000   JMP 0
006f 0000   JMP 0
0070 0005   JMP 5
0071 0000   JMP 0
0072 0000   JMP 0
0073 0000   JMP 0

; data block copied above
0074 0005   JMP 5; inc/dec counter
0075 0000   JMP 0
0076 0005   JMP 5
0077 0000   JMP 0
0078 ffff   AND#S 3 3 sbn

0079 0000   JMP 0
007a 0000   JMP 0
007b 0000   JMP 0
007c 0000   JMP 0
007d 0000   JMP 0
007e 0000   JMP 0
0080 ffff   AND#S 3 3 sbn

0081 0000   JMP 0
0082 0000   JMP 0
0083 0000   JMP 0
0084 0000   JMP 0
0085 0000   JMP 0
0086 0008   JMP 8
0087 0005   JMP 5
0088 0000   JMP 0
0089 0000   JMP 0
008a 0000   JMP 0
008b 0000   JMP 0
008c 0000   JMP 0
008d ffff   AND#S 3 3 sbn

008e 0000   JMP 0
008f 0003   JMP 3
0090 0001   JMP 1
0091 0001   JMP 1
0092 0000   JMP 0
0093 0000   JMP 0
0094 0154   JMP pc+54 ; e8
0095 0030   JMP 30
0096 00c2   JMP c2
0097 0000   JMP 0
0098 0000   JMP 0
0099 000f   JMP f
009a 0000   JMP 0
009b 0be2   JMS ac3-1e
009c 0be1   JMS ac3-1f
009d 0081   JMP 81
009e 0088   JMP 88
009f 0c31   JMS @31
00a0 0113   JMP pc+13 ; b3
00a1 0000   JMP 0
00a2 0000   JMP 0
00a3 0000   JMP 0
00a4 0000   JMP 0
00a5 0000   JMP 0
00a6 0000   JMP 0
00a7 0000   JMP 0
00a8 0000   JMP 0
00a9 0000   JMP 0
00aa 0000   JMP 0
00ab 0000   JMP 0
00ac 0000   JMP 0
00ae ffff   AND#S 3 3 sbn
00af ffff   AND#S 3 3 sbn
00b0 fe19   ADD# 3 3 skp
00b1 fe19   ADD# 3 3 skp
00b2 0000   JMP 0
00b3 0000   JMP 0
00b4 ffff   AND#S 3 3 sbn
00b5 0000   JMP 0
00b6 0000   JMP 0
00b7 0000   JMP 0
00b8 0000   JMP 0
00b9 0000   JMP 0
00ba 0000   JMP 0
00bb 0000   JMP 0
00bc 0000   JMP 0
00bd 0000   JMP 0
00be 0000   JMP 0
00bf 0000   JMP 0
00c0 0000   JMP 0
00c1 0000   JMP 0
00c2 0000   JMP 0
00c3 000f   JMP f
00c4 0014   JMP 14
00c5 0000   JMP 0
00c6 0000   JMP 0
00c7 0000   JMP 0
00c8 0000   JMP 0
00c9 0000   JMP 0
00ca 0000   JMP 0
00cb 0000   JMP 0
00cc 0000   JMP 0
00cd 0000   JMP 0
00ce 0000   JMP 0
00cf 0000   JMP 0
00d0 0000   JMP 0
00d1 00ff   JMP ff
00d2 0000   JMP 0
00d3 0000   JMP 0
00d4 0000   JMP 0
00d5 0000   JMP 0
00d6 0000   JMP 0
00d7 0000   JMP 0
00d8 0000   JMP 0
00d9 0000   JMP 0
00da 0000   JMP 0
00db 0000   JMP 0
00dc 0000   JMP 0
00dd 0000   JMP 0
00de 0000   JMP 0
00df 0000   JMP 0
00e0 0000   JMP 0
00e1 0000   JMP 0
00e2 0000   JMP 0
00e3 0000   JMP 0
00e4 0000   JMP 0
00e5 0000   JMP 0
00e6 0000   JMP 0
00e7 0000   JMP 0
00e8 0000   JMP 0
00e9 0000   JMP 0
00ea 0000   JMP 0
00eb 0000   JMP 0
00ec 0000   JMP 0
00ed 0000   JMP 0
00ee 0000   JMP 0
00ef 0000   JMP 0
00f0 0000   JMP 0
00f1 0000   JMP 0
00f2 0000   JMP 0
00f3 0000   JMP 0
00f4 0000   JMP 0
00f5 0000   JMP 0
00f6 0000   JMP 0
00f7 0000   JMP 0
00f8 ffff   AND#S 3 3 sbn
00f9 00ff   JMP ff
00fa 0000   JMP 0
00fb 0000   JMP 0
00fc 0000   JMP 0
00fd 0141   JMP pc+41 ; 13e
00fe 0000   JMP 0
00ff 0000   JMP 0

0100 3921   LDA 3 pc+21 ; 121 --> 304
0101 585f   STA 3 5f	; init stack pointer
0102 65bf   IORST
0103 0d01   JMS @pc+1 ; @104 --> 5eb
0104 05eb   address
0105 0c5b   JMS @5b ; memclr
0106 0060   
0107 0078   
0108 0c5b   JMS @5b ; memclr
0109 0204   
010a 01a6   
010b ad00   SUB 1 1
010c 4d12   STA 1 @pc+12 ; @11e
010d 4d10   STA 1 @pc+10 ; @11d
010e 4d0e   STA 1 @pc+e ; @11c
010f 4d10   STA 1 @pc+10 ; @11f
0110 4d10   STA 1 @pc+10 ; @120
0111 ad50   SUBL 1 1
0112 4890   STA 1 90
0113 0c40   JMS @40
0114 008e   
0115 0c40   JMS @40
0116 001d   
0117 0c40   JMS @40
0118 0010   
0119 0c40   JMS @40
011a 0020   
011b 0100   JMP pc+0 ; 11b; loop forever

011c 0a98   ; storage
011d 0a99   
011e ffff   
011f ffff   
0120 ffff   
0121 0304   

jms @40 42
0122 8550   SUBL 0 0
0123 4091   STA 0 91	; save carry
0124 2048   LDA 0 48
0125 408f   STA 0 8f
0126 2090   LDA 0 90
0127 820d   MOV# 0 0 snr
0128 0134   JMP pc+34 ; 15c
0129 0c40   JMS @40
012a 0051   
012b 0c40   JMS @40
012c 0007   
012d 2139   LDA 0 pc+39 ; 166
012e 0c40   JMS @40
012f 002a   

jms @40 92
0130 8400   ADC 0 0
0131 4536   STA 0 @pc+36 ; @167
0132 1074   ISZ 74
0133 8208   MOV# 0 0; nop
0134 0c40   JMS @40
0135 001d   
0136 1874   DSZ 74
0137 8208   MOV# 0 0; nop
0138 2051   LDA 0 51
0139 0c40   JMS @40
013a 002a   
013b 2053   LDA 0 53
013c 0c40   JMS @40
013d 002a   
013e 2051   LDA 0 51
013f 0c40   JMS @40
0140 002a   
0141 2127   LDA 0 pc+27 ; 168
0142 0c40   JMS @40
0143 002a   
0144 0c5b   JMS @5b; memclr
0145 00a4   
0146 0034   
0147 0c5b   JMS @5b; memclr
0148 0318   
0149 0031   
014a ad50   SUBL 1 1
014b 4891   STA 1 91
014c 0c5c   JMS @5c; memcpy
014d 01d9   
014e 0060   
014f 0014   
0150 8400   ADC 0 0
0151 4078   STA 0 78
0152 40ae   STA 0 ae
0153 40f8   STA 0 f8
0154 4511   STA 0 @pc+11 ; @165
0155 4459   STA 0 @59
0156 445a   STA 0 @5a
0157 0c40   JMS @40
0158 0032   
0159 0c40   JMS @40
015a 001b   
015b 0441   JMP @41	; return
015c 0c40   JMS @40
015d 0026   
015e 0c40   JMS @40
015f 0010   
0160 0c40   JMS @40
0161 0001   
0162 1874   DSZ 74
0163 8208   MOV# 0 0; nop
0164 0441   JMP @41	; return

0165 ffff   ; storage
0166 0049   
0167 0349   
0168 00ef   

jms @40 4f
0169 0c40   JMS @40
016a 001e   
016b 800d   CMP# 0 0 snr
016c 8500   SUB 0 0
016d 3875   LDA 3 75
016e fa0d   MOV# 3 3 snr
016f 0105   JMP pc+5 ; 174
0170 407c   STA 0 7c
0171 0c40   JMS @40
0172 006c   
0173 0441   JMP @41
0174 587c   STA 3 7c
0175 0441   JMP @41

; call with jms @43 followed by one parameter
0176 10fa   ISZ fa

; call with jms @44 followed by one parameter
0177 5139   STA 2 pc+39 ; 1b0
0178 5939   STA 3 pc+39 ; 1b1
0179 4936   STA 1 pc+36 ; 1af
017a 30fb   LDA 2 fb
017b 2856   LDA 1 56
017c b700   AND 1 2
017d 50fb   STA 2 fb
017e 3300   LDA 2 ac3+0; parameter
017f 3850   LDA 3 50
0180 f700   SKPBN 2 0
0181 392d   LDA 3 pc+2d ; 1ae --> 6fb
0182 de00   ADD 2 3
0183 2b00   LDA 1 ac3+0
0184 3d2d   LDA 3 @pc+2d ; @1b1
0185 fac0   MOVS 3 3
0186 312a   LDA 2 pc+2a ; 1b0
0187 fa52   MOVL 3 3 szc
0188 0104   JMP pc+4 ; 18c
0189 3126   LDA 2 pc+26 ; 1af
018a fa53   MOVL 3 3 snc
018b 9200   MOV 0 2
018c fd00   SUB 3 3
018d d292   MOVR 2 2 szc
018e fb00   INC 3 3
018f b600   ADD 1 2
0190 18fa   DSZ fa
0191 0108   JMP pc+8 ; 199
0192 2a00   LDA 1 ac2+0
0193 3056   LDA 2 56
0194 fa05   MOV 3 3 snr
0195 aac0   MOVS 1 1
0196 cf00   AND 2 1
0197 48fb   STA 1 fb
0198 0110   JMP pc+10 ; 1a8
0199 50fa   STA 2 fa
019a 3056   LDA 2 56
019b 2cfa   LDA 1 @fa
019c fa0c   MOV# 3 3 szr
019d d2c0   MOVS 2 2
019e cf00   AND 2 1
019f 4cfa   STA 1 @fa
01a0 3056   LDA 2 56
01a1 28fb   LDA 1 fb
01a2 cf00   AND 2 1
01a3 fa0d   MOV# 3 3 snr
01a4 aac0   MOVS 1 1
01a5 34fa   LDA 2 @fa
01a6 b600   ADD 1 2
01a7 54fa   STA 2 @fa
01a8 fd00   SUB 3 3
01a9 58fa   STA 3 fa
01aa 2905   LDA 1 pc+5 ; 1af
01ab 3105   LDA 2 pc+5 ; 1b0
01ac 3905   LDA 3 pc+5 ; 1b1
01ad 0301   JMP ac3+1; return

01ae 06fb   ; storage
01af 0005   
01b0 000f   
01b1 0a31   

; call with jms @40 with one parameter calculated jsr to @66b+par
01b2 51fe   STA 2 pc-2 ; 1b0
01b3 105f   ISZ 5f		; push ac3
01b4 5c5f   STA 3 @5f
01b5 3300   LDA 2 ac3+0
01b6 3909   LDA 3 pc+9 ; 1bf --> 66b
01b7 de00   ADD 2 3
01b8 31f8   LDA 2 pc-8 ; 1b0
01b9 0700   JMP @ac3+0		

; most used return address (hardcoded)
01ba 0c40   JMS @40
01bb 000f   

; alternate return address
01bc 3c5f   LDA 3 @5f		; pop ac3
01bd 185f   DSZ 5f
01be 0301   JMP ac3+1		; return

01bf 066b   			; storage, address of table

; multiply ac0+=ac1*ac2
01c0 5909   STA 3 pc+9 ; 1c9
01c1 3909   LDA 3 pc+9 ; 1ca
01c2 aa83   MOVR 1 1 snc
01c3 8281   MOVR 0 0 skp
01c4 c690   ADDR 2 0
01c5 fb04   INC 3 3 szr
01c6 01fc   JMP pc-4 ; 1c2
01c7 aab0   MOVR 1 1
01c8 0501   JMP @pc+1 ; @1c9

01c9 18d6   return address
01ca fff0   -16 counter

; divide ac0:ac1/ac2 -> remainder ac0, result ac1
01cb 59fe   STA 3 pc-2 ; 1c9
01cc c51a   SUB# 2 0 szc
01cd 010a   JMP pc+a ; 1d7
01ce 39fc   LDA 3 pc-4 ; 1ca
01cf aa50   MOVL 1 1
01d0 8240   MOVL 0 0
01d1 c50a   SUB# 2 0 szc
01d2 c500   SUB 2 0
01d3 aa40   MOVL 1 1
01d4 fb04   INC 3 3 szr
01d5 01fb   JMP pc-5 ; 1d0
01d6 fd21   SUB 3 3 skp
01d7 fd10   SUB 3 3
01d8 05f1   JMP @pc-f ; @1c9

; block of data copied
01d9 0078   JMP 78
01da 0001   JMP 1
01db 0014   JMP 14
01dc 0000   JMP 0
01dd 0008   JMP 8
01de 000c   JMP c
01df 001e   JMP 1e
01e0 0001   JMP 1
01e1 0001   JMP 1
01e2 0000   JMP 0
01e3 004f   JMP 4f
01e4 0005   JMP 5
01e5 02c0   JMP ac2-40
01e6 0028   JMP 28
01e7 0000   JMP 0
01e8 0000   JMP 0
01e9 0005   JMP 5
01ea 0000   JMP 0
01eb 0000   JMP 0

01ec 0000   JMP 0
01ed 0234   JMP ac2+34
01ee 044c   JMP @4c
01ef 0004   JMP 4
01f0 000f   JMP f
01f1 0080   JMP 80
01f2 0009   JMP 9
01f3 0012   JMP 12
01f4 0024   JMP 24
01f5 006f   JMP 6f
01f6 0080   JMP 80
01f7 0461   JMP @61
01f8 0c0e   JMS @e
01f9 1012   ISZ 12
01fa 1416   ISZ @16
01fb 181c   DSZ 1c
01fc 2024   LDA 0 24
01fd 282c   LDA 1 2c
01fe 3038   LDA 2 38
01ff 4800   STA 1 0
0200 0001   JMP 1
0201 0203   JMP ac2+3
0202 0405   JMP @5
0203 0607   JMP @ac2+7
0204 fe87   ADDR 3 3 sbn
0205 a688   ADD#R 1 0
0206 c200   MOV 2 0
0207 0000   JMP 0
0208 0000   JMP 0
0209 0000   JMP 0
020a 0000   JMP 0
020b 0000   JMP 0
020c 0000   JMP 0
020d 0000   JMP 0
020e 0000   JMP 0
020f 0000   JMP 0
0210 0000   JMP 0
0211 0000   JMP 0
0212 0000   JMP 0
0213 0000   JMP 0
0214 0000   JMP 0
0215 0000   JMP 0
0216 0000   JMP 0
0217 0000   JMP 0
0218 0000   JMP 0
0219 0000   JMP 0
021a 0000   JMP 0
021b 0000   JMP 0
021c 0000   JMP 0
021d 0000   JMP 0
021e 0000   JMP 0
021f 0000   JMP 0
0220 0000   JMP 0
0221 0000   JMP 0
0222 0000   JMP 0
0223 0000   JMP 0
0224 0000   JMP 0
0225 0000   JMP 0
0226 0000   JMP 0
0227 0000   JMP 0
0228 0000   JMP 0
0229 0000   JMP 0
022a 0000   JMP 0
022b 0000   JMP 0
022c 0000   JMP 0
022d 0000   JMP 0
022e 0000   JMP 0
022f 0000   JMP 0
0230 0000   JMP 0
0231 0000   JMP 0
0232 0000   JMP 0
0233 0000   JMP 0
0234 0000   JMP 0
0235 0000   JMP 0
0236 0000   JMP 0
0237 0000   JMP 0
0238 0000   JMP 0
0239 0000   JMP 0
023a 0000   JMP 0
023b 0000   JMP 0
023c 0000   JMP 0
023d 0000   JMP 0
023e 0000   JMP 0
023f 0000   JMP 0
0240 0000   JMP 0
0241 0000   JMP 0
0242 0000   JMP 0
0243 0000   JMP 0
0244 0000   JMP 0
0245 0000   JMP 0
0246 0000   JMP 0
0247 0000   JMP 0
0248 0000   JMP 0
0249 0000   JMP 0
024a 0000   JMP 0
024b 0000   JMP 0
024c 0000   JMP 0
024d 0000   JMP 0
024e 0000   JMP 0
024f 0000   JMP 0
0250 0000   JMP 0
0251 0000   JMP 0
0252 0000   JMP 0
0253 0000   JMP 0
0254 0000   JMP 0
0255 0000   JMP 0
0256 0000   JMP 0
0257 0000   JMP 0
0258 0000   JMP 0
0259 0000   JMP 0
025a 0000   JMP 0
025b 0000   JMP 0
025c 0000   JMP 0
025d 0000   JMP 0
025e 0000   JMP 0
025f 0000   JMP 0
0260 0000   JMP 0
0261 0000   JMP 0
0262 0000   JMP 0
0263 0000   JMP 0
0264 0000   JMP 0
0265 0000   JMP 0
0266 0000   JMP 0
0267 0000   JMP 0
0268 0000   JMP 0
0269 0000   JMP 0
026a 0000   JMP 0
026b 0000   JMP 0
026c 0000   JMP 0
026d 0000   JMP 0
026e 0000   JMP 0
026f 0000   JMP 0
0270 0000   JMP 0
0271 0000   JMP 0
0272 0000   JMP 0
0273 0000   JMP 0
0274 0000   JMP 0
0275 0000   JMP 0
0276 0000   JMP 0
0277 0000   JMP 0
0278 0000   JMP 0
0279 0000   JMP 0
027a 0000   JMP 0
027b 0000   JMP 0
027c 0000   JMP 0
027d 0000   JMP 0
027e 0000   JMP 0
027f 0000   JMP 0
0280 0000   JMP 0
0281 0000   JMP 0
0282 0000   JMP 0
0283 0000   JMP 0
0284 0500   JMP @pc+0 ; @284
0285 807f   CMP#L 0 0 sbn
0286 0500   JMP @pc+0 ; @286
0287 8010   CMP 0 0
0288 41ff   STA 0 pc-1 ; 287
0289 41ff   STA 0 pc-1 ; 288
028a 4128   STA 0 pc+28 ; 2b2
028b 403f   STA 0 3f
028c 0000   JMP 0
028d 0000   JMP 0
028e 0000   JMP 0
028f 0000   JMP 0
0290 0000   JMP 0
0291 0000   JMP 0
0292 0000   JMP 0
0293 0000   JMP 0
0294 0000   JMP 0
0295 0000   JMP 0
0296 0000   JMP 0
0297 0000   JMP 0
0298 0000   JMP 0
0299 0000   JMP 0
029a 0000   JMP 0
029b 0000   JMP 0
029c 0000   JMP 0
029d 0000   JMP 0
029e 0000   JMP 0
029f 0000   JMP 0
02a0 0000   JMP 0
02a1 0000   JMP 0
02a2 0000   JMP 0
02a3 0000   JMP 0
02a4 0000   JMP 0
02a5 0000   JMP 0
02a6 0000   JMP 0
02a7 0000   JMP 0
02a8 0000   JMP 0
02a9 0000   JMP 0
02aa 0000   JMP 0
02ab 0000   JMP 0
02ac 0000   JMP 0
02ad 0000   JMP 0
02ae 0000   JMP 0
02af 0000   JMP 0
02b0 0000   JMP 0
02b1 0000   JMP 0
02b2 0000   JMP 0
02b3 0000   JMP 0
02b4 0000   JMP 0
02b5 0000   JMP 0
02b6 0000   JMP 0
02b7 0000   JMP 0
02b8 0000   JMP 0
02b9 0000   JMP 0
02ba 0000   JMP 0
02bb 0000   JMP 0
02bc 0000   JMP 0
02bd 0000   JMP 0
02be 0000   JMP 0
02bf 0000   JMP 0
02c0 0000   JMP 0
02c1 0000   JMP 0
02c2 0000   JMP 0
02c3 0000   JMP 0
02c4 0000   JMP 0
02c5 0000   JMP 0
02c6 0000   JMP 0
02c7 0000   JMP 0
02c8 0000   JMP 0
02c9 0000   JMP 0
02ca 0000   JMP 0
02cb 0000   JMP 0
02cc 0000   JMP 0
02cd 0000   JMP 0
02ce 0000   JMP 0
02cf 0000   JMP 0
02d0 0000   JMP 0
02d1 0000   JMP 0
02d2 0000   JMP 0
02d3 0000   JMP 0
02d4 0000   JMP 0
02d5 0000   JMP 0
02d6 0000   JMP 0
02d7 0000   JMP 0
02d8 0000   JMP 0
02d9 0000   JMP 0
02da 0000   JMP 0
02db 0000   JMP 0
02dc 0000   JMP 0
02dd 0000   JMP 0
02de 0000   JMP 0
02df 0000   JMP 0
02e0 0000   JMP 0
02e1 0000   JMP 0
02e2 0000   JMP 0
02e3 0000   JMP 0
02e4 0000   JMP 0
02e5 0000   JMP 0
02e6 0000   JMP 0
02e7 0000   JMP 0
02e8 0000   JMP 0
02e9 0000   JMP 0
02ea 0000   JMP 0
02eb 0000   JMP 0
02ec 0000   JMP 0
02ed 0000   JMP 0
02ee 0000   JMP 0
02ef 0000   JMP 0
02f0 0000   JMP 0
02f1 0000   JMP 0
02f2 0000   JMP 0
02f3 0000   JMP 0
02f4 0000   JMP 0
02f5 0000   JMP 0
02f6 0000   JMP 0
02f7 0000   JMP 0
02f8 0000   JMP 0
02f9 0000   JMP 0
02fa 0000   JMP 0
02fb 0000   JMP 0
02fc 0000   JMP 0
02fd 0000   JMP 0
02fe 0000   JMP 0
02ff 0000   JMP 0
0300 0000   JMP 0
0301 0000   JMP 0
0302 0000   JMP 0
0303 0000   JMP 0
0304 0000   JMP 0		; form of stack
0305 0118   JMP pc+18 ; 31d
0306 0cab   JMS @ab
0307 0938   JMS pc+38 ; 33f
0308 0135   JMP pc+35 ; 33d
0309 01bb   JMP pc-45 ; 2c4
030a 1122   ISZ pc+22 ; 32c
030b 01bb   JMP pc-45 ; 2c6
030c 01bb   JMP pc-45 ; 2c7
030d 0000   JMP 0
030e 0000   JMP 0
030f 0000   JMP 0
0310 0000   JMP 0
0311 0000   JMP 0
0312 0000   JMP 0
0313 0000   JMP 0
0314 0000   JMP 0
0315 0000   JMP 0
0316 0000   JMP 0
0317 0000   JMP 0

; block of data
0318 0000   JMP 0
0319 0000   JMP 0
031a 0000   JMP 0
031b 0000   JMP 0
031c 0000   JMP 0
031d 0000   JMP 0
031e 0000   JMP 0
031f 0000   JMP 0
0320 0000   JMP 0
0321 0000   JMP 0
0322 0000   JMP 0
0323 0000   JMP 0
0324 0000   JMP 0
0325 0000   JMP 0
0326 0000   JMP 0
0327 0000   JMP 0
0328 0000   JMP 0
0329 0000   JMP 0
032a 0000   JMP 0
032b 0000   JMP 0
032c 0000   JMP 0
032d 0000   JMP 0
032e 0000   JMP 0
032f 0000   JMP 0
0330 0000   JMP 0
0331 0000   JMP 0
0332 0000   JMP 0
0333 0000   JMP 0
0334 0000   JMP 0
0335 0000   JMP 0
0336 0000   JMP 0
0337 0000   JMP 0
0338 0000   JMP 0

0339 0000   JMP 0
033a 0000   JMP 0
033b 0000   JMP 0
033c 0000   JMP 0
033d 0000   JMP 0
033e 0000   JMP 0
033f 0000   JMP 0
0340 0000   JMP 0
0341 0000   JMP 0
0342 0000   JMP 0
0343 0000   JMP 0
0344 0000   JMP 0
0345 0000   JMP 0
0346 0000   JMP 0
0347 0000   JMP 0
0348 0000   JMP 0
0349 ffff   AND#S 3 3 sbn
034a 0000   JMP 0
034b 0000   JMP 0
034c 0000   JMP 0
034d 0000   JMP 0
034e 0000   JMP 0
034f 0000   JMP 0
0350 0000   JMP 0
0351 0000   JMP 0
0352 0000   JMP 0
0353 0000   JMP 0
0354 0000   JMP 0
0355 0000   JMP 0
0356 0000   JMP 0
0357 0000   JMP 0
0358 0000   JMP 0
0359 0000   JMP 0
035a 0000   JMP 0
035b 0000   JMP 0
035c 0000   JMP 0
035d 0000   JMP 0
035e 0000   JMP 0
035f 0000   JMP 0
0360 0000   JMP 0
0361 0000   JMP 0
0362 ffff   AND#S 3 3 sbn
0363 0000   JMP 0
0364 0000   JMP 0
0365 0000   JMP 0
0366 0000   JMP 0
0367 0000   JMP 0
0368 0000   JMP 0
0369 0000   JMP 0
036a 0000   JMP 0
036b 0000   JMP 0
036c 0000   JMP 0
036d 0000   JMP 0
036e 0000   JMP 0
036f 0000   JMP 0
0370 0000   JMP 0
0371 0000   JMP 0
0372 0000   JMP 0
0373 0000   JMP 0
0374 0000   JMP 0
0375 0000   JMP 0
0376 0000   JMP 0
0377 0000   JMP 0
0378 ffff   AND#S 3 3 sbn
0379 0000   JMP 0
037a 0000   JMP 0
037b 0000   JMP 0
037c 0000   JMP 0
037d 0000   JMP 0
037e 0000   JMP 0
037f 0000   JMP 0
0380 0000   JMP 0
0381 0000   JMP 0
0382 0000   JMP 0
0383 0000   JMP 0
0384 0000   JMP 0
0385 0000   JMP 0
0386 0000   JMP 0
0387 0000   JMP 0
0388 0000   JMP 0
0389 0000   JMP 0
038a 0000   JMP 0
038b 0000   JMP 0
038c 0000   JMP 0
038d 0000   JMP 0
038e 0000   JMP 0
038f 0000   JMP 0
0390 0000   JMP 0
0391 0000   JMP 0
0392 0000   JMP 0
0393 0000   JMP 0
0394 0000   JMP 0
0395 0000   JMP 0
0396 0000   JMP 0
0397 0000   JMP 0
0398 0000   JMP 0
0399 0000   JMP 0
039a 0000   JMP 0
039b 0000   JMP 0
039c 0000   JMP 0
039d 0000   JMP 0
039e 0000   JMP 0
039f 0000   JMP 0
03a0 0000   JMP 0
03a1 0000   JMP 0
03a2 0000   JMP 0
03a3 0000   JMP 0
03a4 0000   JMP 0
03a5 0000   JMP 0
03a6 0000   JMP 0
03a7 0000   JMP 0
03a8 0000   JMP 0
03a9 0000   JMP 0
03aa db16   INC 2 3 sez
03ab db16   INC 2 3 sez
03ac db16   INC 2 3 sez
03ad db80   INCR 2 3
03ae 8080   CMPR 0 0
03af 8097   CMPR 0 0 sbn
03b0 4144   STA 0 pc+44 ; 3f4
03b1 5445   STA 2 @45
03b2 04cb   JMP @cb
03b3 4645   STA 0 @ac2+45
03b4 2fd2   LDA 1 @ac3-2e
03b5 3fd7   LDA 3 @ac3-29
03b6 4546   STA 0 @pc+46 ; @3fc
03b7 13d2   ISZ ac3-2e
03b8 4243   STA 0 ac2+43
03b9 5246   STA 2 ac2+46
03ba 4452   STA 0 @52
03bb 4555   STA 0 @pc+55 ; @410
03bc 4516   STA 0 @pc+16 ; @3d2
03bd db16   INC 2 3 sez
03be db16   INC 2 3 sez
03bf db16   INC 2 3 sez
03c0 db16   INC 2 3 sez
03c1 db16   INC 2 3 sez
03c2 db16   INC 2 3 sez
03c3 db16   INC 2 3 sez
03c4 db16   INC 2 3 sez
03c5 db16   INC 2 3 sez
03c6 db41   INCL 2 3 skp
03c7 4454   STA 0 @54
03c8 4546   STA 0 @pc+46 ; @40e
03c9 d30d   INC# 2 2 snr
03ca d341   INCL 2 2 skp
03cb 4455   STA 0 @55
03cc 46d9   STA 0 @ac2-27
03cd 4645   STA 0 @ac2+45
03ce 03d5   JMP ac3-2b
03cf 09d7   JMS pc-29 ; 3a6
03d0 ec01   ADC 3 1 skp
03d1 d51b   SUB# 2 2 snc
03d2 d70e   AND# 2 2 sez
03d3 d508   SUB# 2 2
03d4 e119   NEG# 3 0 skp
03d5 dbed   INC#S 2 3 snr
03d6 1bd7   DSZ ac3-29
03d7 03d5   JMP ac3-2b
03d8 ed1d   SUB# 3 1 snr
03d9 e306   INC 3 0 sez
03da eb25   INC 3 1 snr
03db db01   INC 2 3 skp
03dc d502   SUB 2 2 szc
03dd e724   AND 3 0 szr
03de ebec   INC#S 3 1 szr
03df ed33   SUB 3 1 snc
03e0 cf1b   AND# 2 1 snc
03e1 d708   AND# 2 2
03e2 e102   NEG 3 0 szc
03e3 e745   ANDL 3 0 snr
03e4 4622   STA 0 @ac2+22
03e5 eb41   INCL 3 1 skp
03e6 4454   STA 0 @54
03e7 4625   STA 0 @ac2+25
03e8 db01   INC 2 3 skp
03e9 d502   SUB 2 2 szc
03ea e741   ANDL 3 0 skp
03eb 4454   STA 0 @54
03ec 4544   STA 0 @pc+44 ; @430
03ed 5245   STA 2 ac2+45
03ee 5345   STA 2 ac3+45
03ef 5345   STA 2 ac3+45
03f0 ca24   MOV 2 1 szr
03f1 ed41   SUBL 3 1 skp
03f2 4453   STA 0 @53
03f3 4545   STA 0 @pc+45 ; @438
03f4 4144   STA 0 pc+44 ; 438
03f5 5345   STA 2 ac3+45
03f6 4453   STA 0 @53
03f7 4544   STA 0 @pc+44 ; @43b
03f8 5345   STA 2 ac3+45
03f9 ebed   INC#S 3 1 snr
03fa 0adc   JMS ac2-24
03fb 08dc   JMS dc
03fc 09dc   JMS pc-24 ; 3d8
03fd 4645   STA 0 @ac2+45
03fe 20e8   LDA 0 e8
03ff 4546   STA 0 @pc+46 ; @445
0400 0cdc   JMS @dc
0401 0cdc   JMS @dc
0402 09dc   JMS pc-24 ; 3de
0403 0fdc   JMS @ac3-24
0404 f142   NEGL 3 2 szc
0405 4357   STA 0 ac3+57
0406 4624   STA 0 @ac2+24
0407 f213   MOV 3 2 snc
0408 eb41   INCL 3 1 skp
0409 4452   STA 0 @52
040a 45ef   STA 0 @pc-11 ; @3f9
040b 2fed   LDA 1 @ac3-13
040c 37ee   LDA 2 @ac3-12
040d 3eee   LDA 3 @ac2-12
040e f33e   INC# 3 2 sez
040f ee02   ADD 3 1 szc
0410 f515   SUB 3 2 snr
0411 f10c   NEG# 3 2 szr
0412 f60c   ADD# 3 2 szr
0413 f606   ADD 3 2 sez
0414 f803   CMP 3 3 snc
0415 f025   CMP 3 2 snr
0416 ef24   AND 3 1 szr
0417 f880   CMPR 3 3
0418 8081   CMPR 0 0 skp
0419 4144   STA 0 pc+44 ; 45d
041a 5845   STA 3 45
041b 04e3   JMP @e3
041c 8080   CMPR 0 0
041d 80e6   CMPS 0 0 sez
041e 4244   STA 0 ac2+44
041f 5045   STA 2 45
0420 35d7   LDA 2 @pc-29 ; @3f7
0421 bf41   ANDL 1 3 skp
0422 4451   STA 0 @51
0423 4580   STA 0 @pc-80 ; @3a3
0424 8080   CMPR 0 0
0425 8080   CMPR 0 0
0426 8080   CMPR 0 0
0427 8080   CMPR 0 0
0428 8080   CMPR 0 0
0429 8080   CMPR 0 0
042a 8080   CMPR 0 0
042b 8080   CMPR 0 0
042c 8080   CMPR 0 0
042d 8080   CMPR 0 0
042e 8080   CMPR 0 0
042f 8080   CMPR 0 0
0430 8080   CMPR 0 0
0431 8080   CMPR 0 0
0432 8080   CMPR 0 0
0433 8080   CMPR 0 0
0434 8080   CMPR 0 0
0435 8080   CMPR 0 0
0436 8080   CMPR 0 0
0437 8080   CMPR 0 0
0438 0000   JMP 0
0439 8080   CMPR 0 0
043a 8080   CMPR 0 0
043b 8080   CMPR 0 0
043c 8080   CMPR 0 0
043d 8080   CMPR 0 0
043e 8080   CMPR 0 0
043f 8080   CMPR 0 0
0440 8080   CMPR 0 0
0441 8080   CMPR 0 0
0442 8080   CMPR 0 0
0443 8080   CMPR 0 0
0444 809c   CMP#R 0 0 szr
0445 eb1b   INC# 3 1 snc
0446 0cc3   JMS @c3
0447 eb3e   INC# 3 1 sez
0448 d932   NEG 2 3 szc
0449 cb3e   INC# 2 1 sez
044a d9eb   NEG#S 2 3 snc
044b 3ac3   LDA 3 ac2-3d
044c 0ee3   JMS @ac2-1d
044d 04c3   JMP @c3
044e 0ef1   JMS @ac2-f
044f 17f1   ISZ @ac3-f
0450 1beb   DSZ ac3-15
0451 36f1   LDA 2 @ac2-f
0452 0380   JMP ac3-80
0453 8080   CMPR 0 0
0454 8080   CMPR 0 0
0455 8080   CMPR 0 0
0456 8080   CMPR 0 0
0457 8080   CMPR 0 0
0458 8080   CMPR 0 0
0459 8080   CMPR 0 0
045a 8080   CMPR 0 0
045b 8080   CMPR 0 0
045c 8080   CMPR 0 0
045d 8080   CMPR 0 0
045e 8080   CMPR 0 0
045f 8080   CMPR 0 0
0460 8080   CMPR 0 0
0461 8080   CMPR 0 0
0462 8080   CMPR 0 0
0463 8080   CMPR 0 0
0464 8080   CMPR 0 0
0465 8080   CMPR 0 0
0466 8080   CMPR 0 0
0467 8080   CMPR 0 0
0468 8080   CMPR 0 0
0469 8080   CMPR 0 0
046a 8080   CMPR 0 0
046b 8080   CMPR 0 0
046c 8080   CMPR 0 0
046d 8080   CMPR 0 0
046e 8080   CMPR 0 0
046f 8080   CMPR 0 0
0470 8080   CMPR 0 0
0471 8080   CMPR 0 0
0472 8080   CMPR 0 0
0473 8080   CMPR 0 0
0474 8080   CMPR 0 0
0475 8080   CMPR 0 0
0476 8080   CMPR 0 0
0477 8080   CMPR 0 0
0478 8080   CMPR 0 0
0479 8080   CMPR 0 0
047a 8080   CMPR 0 0
047b 8080   CMPR 0 0
047c 8080   CMPR 0 0
047d 8080   CMPR 0 0
047e 8080   CMPR 0 0
047f 8080   CMPR 0 0
0480 8080   CMPR 0 0
0481 8080   CMPR 0 0
0482 8080   CMPR 0 0
0483 8080   CMPR 0 0
0484 8080   CMPR 0 0
0485 8080   CMPR 0 0
0486 8080   CMPR 0 0
0487 8080   CMPR 0 0
0488 8080   CMPR 0 0
0489 8080   CMPR 0 0
048a 8080   CMPR 0 0
048b 8080   CMPR 0 0
048c 8080   CMPR 0 0
048d 8080   CMPR 0 0
048e 8080   CMPR 0 0
048f 8080   CMPR 0 0
0490 8080   CMPR 0 0
0491 8080   CMPR 0 0
0492 8080   CMPR 0 0
0493 8080   CMPR 0 0
0494 8080   CMPR 0 0
0495 8080   CMPR 0 0
0496 8080   CMPR 0 0
0497 8080   CMPR 0 0
0498 8080   CMPR 0 0
0499 8080   CMPR 0 0
049a 8080   CMPR 0 0
049b 8080   CMPR 0 0
049c 8080   CMPR 0 0
049d 8080   CMPR 0 0
049e 8080   CMPR 0 0
049f 8080   CMPR 0 0
04a0 8080   CMPR 0 0
04a1 8080   CMPR 0 0
04a2 8080   CMPR 0 0
04a3 8080   CMPR 0 0
04a4 8080   CMPR 0 0
04a5 8080   CMPR 0 0
04a6 8080   CMPR 0 0
04a7 8080   CMPR 0 0
04a8 8d17   SUB 0 1 sbn
04a9 24ee   LDA 0 @ee
04aa 8080   CMPR 0 0
04ab 8080   CMPR 0 0
04ac 8080   CMPR 0 0
04ad 80ad   CMP#R 0 0 snr
04ae 4546   STA 0 @pc+46 ; @4f4
04af 03d7   JMP ac3-29
04b0 eb46   INCL 3 1 sez
04b1 453c   STA 0 @pc+3c ; @4ed
04b2 ef06   AND 3 1 sez
04b3 4500   STA 0 @pc+0 ; @4b3

04b4 0000   JMP 0
04b5 0000   JMP 0
04b6 0000   JMP 0
04b7 0000   JMP 0
04b8 0000   JMP 0
04b9 0000   JMP 0
04ba 0060   JMP 60
04bb 0060   JMP 60
04bc 0000   JMP 0
04bd 0000   JMP 0
04be 0000   JMP 0
04bf 0000   JMP 0
04c0 0000   JMP 0
04c1 0000   JMP 0
04c2 0000   JMP 0
04c3 0000   JMP 0
04c4 0000   JMP 0
04c5 0000   JMP 0
04c6 0000   JMP 0
04c7 0000   JMP 0
04c8 0000   JMP 0
04c9 0000   JMP 0
04ca 0000   JMP 0
04cb 0000   JMP 0
04cc 0000   JMP 0
04cd 0000   JMP 0
04ce 0000   JMP 0
04cf 0000   JMP 0
04d0 0000   JMP 0
04d1 0000   JMP 0
04d2 0000   JMP 0
04d3 0000   JMP 0
04d4 0000   JMP 0
04d5 0000   JMP 0

04d6 0000   JMP 0
04d7 0000   JMP 0
04d8 0000   JMP 0
04d9 0000   JMP 0
04da 0000   JMP 0
04db 0000   JMP 0
04dc 0000   JMP 0
04dd 0000   JMP 0
04de 0000   JMP 0
04df 0000   JMP 0
04e0 0000   JMP 0
04e1 0000   JMP 0
04e2 0000   JMP 0
04e3 0000   JMP 0
04e4 0000   JMP 0

; block of data copied 
04e5 0228   JMP ac2+28
04e6 0003   JMP 3
04e7 0038   JMP 38
04e8 0039   JMP 39
04e9 0008   JMP 8
04ea 000c   JMP c
04eb 001e   JMP 1e
04ec 0001   JMP 1
04ed 0001   JMP 1
04ee 0000   JMP 0
04ef 004f   JMP 4f
04f0 000e   JMP e
04f1 02c0   JMP ac2-40
04f2 0000   JMP 0
04f3 0000   JMP 0
04f4 0000   JMP 0
04f5 0005   JMP 5
04f6 0000   JMP 0
04f7 0000   JMP 0
04f8 0d80   JMS @pc-80 ; @478
04f9 00c7   JMP c7
04fa 0000   JMP 0
04fb 00c7   JMP c7
04fc 0000   JMP 0
04fd ffff   AND#S 3 3 sbn
04fe 06c0   JMP @ac2-40
04ff 2010   LDA 0 10
0500 0100   JMP pc+0 ; 500
0501 0000   JMP 0
0502 0000   JMP 0
0503 0000   JMP 0
0504 0000   JMP 0

; block of data referenced from table
0505 0204   JMP ac2+4
0506 8001   CMP 0 0 skp
0507 0009   JMP 9
0508 0300   JMP ac3+0
0509 fe00   ADD 3 3
050a 1904   DSZ pc+4 ; 50e
050b 0705   JMP @ac3+5
050c 1300   ISZ ac3+0
050d 0001   JMP 1
050e 0606   JMP @ac2+6
050f 0e01   JMS @ac2+1
0510 0224   JMP ac2+24
0511 0801   JMS 1
0512 8004   CMP 0 0 szr
0513 6066   NIOS 0 26
0514 6601   DOC 0 1
0515 1680   ISZ @ac2-80
0516 5442   STA 2 @42
0517 1e01   DSZ @ac2+1
0518 0680   JMP @ac2-80
0519 8001   CMP 0 0 skp
051a 0000   JMP 0

; data
051b 0e01   JMS @ac2+1
051c 0166   JMP pc+66 ; 582
051d 0e01   JMS @ac2+1
051e 6601   DOC 0 1
051f 1e01   DSZ @ac2+1
0520 0142   JMP pc+42 ; 562
0521 0166   JMP pc+66 ; 587
0522 4242   STA 0 ac2+42
0523 6642   DOCS 0 2
0524 421e   STA 0 ac2+1e
0525 0106   JMP pc+6 ; 52b
0526 8080   CMPR 0 0
0527 0100   JMP pc+0 ; 527
0528 0201   JMP ac2+1
0529 5401   STA 2 @1
052a 0101   JMP pc+1 ; 52b
052b 0409   JMP @9
052c 150e   ISZ @pc+e ; @53a
052d 042d   JMP @2d
052e 0e01   JMS @ac2+1
052f 1409   ISZ @9
0530 0513   JMP @pc+13 ; @543
0531 270e   LDA 0 @ac3+e
0532 2713   LDA 0 @ac3+13
0533 0e13   JMS @ac2+13
0534 2614   LDA 0 @ac2+14
0535 1516   ISZ @pc+16 ; @54b
0536 1718   ISZ @ac3+18
0537 191a   DSZ pc+1a ; 551
0538 060f   JMP @ac2+f
0539 1219   ISZ ac2+19
053a 0f15   JMS @ac3+15
053b 0409   JMP @9
053c 150e   ISZ @pc+e ; @54a
053d 040f   JMP @f
053e 0e01   JMS @ac2+1
053f 1409   ISZ @9
0540 0513   JMP @pc+13 ; @553
0541 0f0e   JMS @ac3+e
0542 1313   ISZ ac3+13
0543 0e13   JMS @ac2+13
0544 1314   ISZ ac3+14
0545 1516   ISZ @pc+16 ; @55b
0546 1718   ISZ @ac3+18
0547 591a   STA 3 pc+1a ; 561
0548 060f   JMP @ac2+f
0549 1219   ISZ ac2+19
054a 0f15   JMS @ac3+15
054b 810e   NEG# 0 0 sez
054c 1993   DSZ pc-6d ; 4df
054d 0f0d   JMS @ac3+d
054e 058c   JMP @pc-74 ; @4da
054f 0117   JMP pc+17 ; 566
0550 9013   CMP 0 2 snc
0551 1997   DSZ pc-69 ; 4e8
0552 0914   JMS pc+14 ; 566
0553 0893   JMS 93
0554 190e   DSZ pc+e ; 562
0555 8f15   AND 0 1 snr
0556 148f   ISZ @8f
0557 1605   ISZ @ac2+5
0558 1284   ISZ ac2-7c
0559 0913   JMS pc+13 ; 56c
055a 9305   INC 0 2 snr
055b 0d09   JMS @pc+9 ; @564
055c 950e   SUB# 0 2 sez
055d 0405   JMP @5
055e 1290   ISZ ac2-70
055f 0c01   JMS @1
0560 198c   DSZ pc-74 ; 4ec
0561 0506   JMP @pc+6 ; @567
0562 1492   ISZ @92
0563 0907   JMS pc+7 ; 56a
0564 0814   JMS 14
0565 8516   SUB 0 0 sez
0566 0512   JMP @pc+12 ; @578
0567 1982   DSZ pc-7e ; 4e9
0568 0103   JMP pc+3 ; 56b
0569 0b81   JMS ac3-7f
056a 0e14   JMS @ac2+14
056b 098e   JMS pc-72 ; 4f9
056c 0f0e   JMS @ac3+e
056d 8819   CMP# 0 1 skp
056e cd05   SUB 2 1 snr
056f 0ecd   JMS @ac2-33
0570 010e   JMP pc+e ; 57e
0571 c913   NEG 2 1 snc
0572 0dd4   JMS @pc-2c ; @546
0573 0916   JMS pc+16 ; 589
0574 05d7   JMP @pc-29 ; @54b
0575 0119   JMP pc+19 ; 58e
0576 c91a   NEG# 2 1 szc
0577 05cc   JMP @pc-34 ; @543
0578 0513   JMP @pc+13 ; @58b
0579 c301   INC 2 0 skp
057a 0cc4   JMS @c4
057b 010c   JMP pc+c ; 587
057c 9115   NEG 0 2 snr
057d 0104   JMP pc+4 ; 581
057e d308   INC# 2 2
057f 0910   JMS pc+10 ; 58f
0580 cd01   SUB 2 1 skp
0581 1405   ISZ @5
0582 c80f   CMP# 2 1 sbn
0583 0f04   JMS @ac3+4
0584 d70f   AND# 2 2 sbn
0585 120b   ISZ ac2+b
0586 d40f   ADC# 2 2 sbn
0587 170e   ISZ @ac3+e
0588 ce05   ADD 2 1 snr
0589 1381   ISZ ac3-7f
058a 0512   JMP @pc+12 ; @59c
058b 0f94   JMS @ac3-6c
058c 0503   JMP @pc+3 ; @58f
058d 0888   JMS 88
058e 0907   JMS pc+7 ; 595
058f 0890   JMS 90
0590 080f   JMS f
0591 140f   ISZ @f
0592 cc01   ADC 2 1 skp
0593 12d4   ISZ ac2-2c
0594 0f12   JMS @ac3+12
0595 c205   MOV 2 0 snr
0596 128c   ISZ ac2-74
0597 010e   JMP pc+e ; 5a5
0598 0488   JMP @88
0599 0f0d   JMS @ac3+d
059a 05c2   JMP @pc-3e ; @55c
059b 010c   JMP pc+c ; 5a7
059c 0ccc   JMS @cc
059d 010e   JMP pc+e ; 5ab
059e 0487   JMP @87
059f 1201   ISZ ac2+1
05a0 0e04   JMS @ac2+4
05a1 8609   ADD# 0 0 skp
05a2 1205   ISZ ac2+5
05a3 9308   INC# 0 2
05a4 0f05   JMS @ac3+5
05a5 880f   CMP# 0 1 sbn
05a6 1513   ISZ @pc+13 ; @5b9
05a7 058e   JMP @pc-72 ; @535
05a8 0f12   JMS @ac3+12
05a9 1408   ISZ @8
05aa 0000   JMP 0

; data
05ab 0000   JMP 0
05ac fafb   MOV#S 3 3 snc
05ad 0a0b   JMS ac2+b
05ae 3c3d   LDA 3 @3d
05af 7f7f   SKPBZ 3 3f
05b0 d4d5   ADCS 2 2 snr
05b1 0203   JMP ac2+3
05b2 5657   STA 2 @ac2+57
05b3 c0c0   CMPS 2 0
05b4 0000   JMP 0
05b5 2627   LDA 0 @ac2+27
05b6 d7d7   ANDS 2 2 sbn
05b7 1213   ISZ ac2+13
05b8 4647   STA 0 @ac2+47
05b9 2a2b   LDA 1 ac2+2b
05ba 4445   STA 0 @45
05bb ecec   ADC#S 3 1 szr
05bc 4a4b   STA 1 ac2+4b
05bd 0809   JMS 9
05be 5455   STA 2 @55
05bf 2425   LDA 0 @25
05c0 3e3f   LDA 3 @ac2+3f
05c1 1415   ISZ @15
05c2 c1cc   NEG#S 2 0 szr
05c3 1c1d   DSZ @1d
05c4 4c4d   STA 1 @4d
05c5 0c0d   JMS @d
05c6 c8c8   CMP#S 2 1
05c7 0607   JMP @ac2+7
05c8 fcfd   ADC#S 3 3 snr
05c9 1617   ISZ @ac2+17
05ca caca   MOV#S 2 1 szc
05cb 2829   LDA 1 29
05cc 4041   STA 0 41
05cd 3435   LDA 2 @35
05ce 5253   STA 2 ac2+53
05cf 1819   DSZ 19
05d0 c3c4   INCS 2 0 szr
05d1 2e2f   LDA 1 @ac2+2f
05d2 3a3b   LDA 3 ac2+3b
05d3 1011   ISZ 11
05d4 5859   STA 3 59
05d5 3233   LDA 2 ac2+33
05d6 4243   STA 0 ac2+43
05d7 2021   LDA 0 21
05d8 3637   LDA 2 @ac2+37
05d9 2223   LDA 0 ac2+23
05da 5a5b   STA 3 ac2+5b
05db 1e1f   DSZ @ac2+1f
05dc 4849   STA 1 49
05dd 0405   JMP @5
05de 8080   CMPR 0 0
05df 0e0f   JMS @ac2+f
05e0 5051   STA 2 51
05e1 0000   JMP 0
05e2 8181   NEGR 0 0 skp
05e3 1a1b   DSZ ac2+1b
05e4 4e4f   STA 1 @ac2+4f
05e5 3031   LDA 2 31
05e6 3839   LDA 3 39
05e7 2c2d   LDA 1 @2d
05e8 c7c7   ANDS 2 0 sbn
05e9 0000   JMP 0
05ea 0000   JMP 0

05eb 60bf   INTDS
05ec 6082   NIOC 0 2
05ed 604a   NIOS 0 a
05ee 0301   JMP ac3+1; return with skip
05ef 208d   LDA 0 8d
05f0 820d   MOV# 0 0 snr
05f1 678a   SKPDN 0 a
05f2 0304   JMP ac3+4
05f3 614a   DIAS 0 a
05f4 0301   JMP ac3+1
05f5 6782   SKPDN 0 2
05f6 0308   JMP ac3+8
05f7 20fb   LDA 0 fb

05f8 5928   STA 3 pc+28 ; 620
05f9 3924   LDA 3 pc+24 ; 61d
05fa 9d0d   SUB# 0 3 snr
05fb 0107   JMP pc+7 ; 602
05fc 3922   LDA 3 pc+22 ; 61e
05fd 9d0d   SUB# 0 3 snr
05fe 0104   JMP pc+4 ; 602
05ff 6242   DOAS 0 2
0600 3920   LDA 3 pc+20 ; 620
0601 0301   JMP ac3+1
0602 3d1f   LDA 3 @pc+1f ; @621
0603 fa0d   MOV# 3 3 snr
0604 01fc   JMP pc-4 ; 600
0605 384c   LDA 3 4c
0606 591d   STA 3 pc+1d ; 623
0607 211b   LDA 0 pc+1b ; 622
0608 6782   SKPDN 0 2
0609 01ff   JMP pc-1 ; 608
060a 6242   DOAS 0 2
060b 3918   LDA 3 pc+18 ; 623
060c fa0d   MOV# 3 3 snr
060d 0105   JMP pc+5 ; 612
060e 1915   DSZ pc+15 ; 623
060f 01f8   JMP pc-8 ; 607
0610 2114   LDA 0 pc+14 ; 624
0611 01f7   JMP pc-9 ; 608
0612 8500   SUB 0 0
0613 450e   STA 0 @pc+e ; @621
0614 450b   STA 0 @pc+b ; @61f
0615 2510   LDA 0 @pc+10 ; @625
0616 3847   LDA 3 47
0617 e700   AND 3 0
0618 6250   DOAS 0 10
0619 663f   HALT
061a 8500   SUB 0 0
061b 450a   STA 0 @pc+a ; @625
061c 01e4   JMP pc-1c ; 600
061d 0048   JMP 48
061e 0047   JMP 47
061f ffff   AND#S 3 3 sbn
0620 0a42   JMS ac2+42
0621 0a98   JMS ac2-68
0622 40e7   STA 0 e7
0623 0000   JMP 0
0624 4001   STA 0 1
0625 0a99   JMS ac2-67

;data
0626 0000   JMP 0
0627 1542   ISZ @pc+42 ; @669
0628 0a3d   JMS ac2+3d
0629 1738   ISZ @ac3+38
062a 093c   JMS pc+3c ; 666
062b 193a   DSZ pc+3a ; 665
062c 0c40   JMS @40
062d 2535   
062e 0130   JMP pc+30 ; 65e
062f 0636   JMP @ac2+36
0630 0d44   JMS @pc+44 ; @674
0631 0f46   JMS @ac3+46
0632 0533   JMP @pc+33 ; @665
0633 0432   JMP @32
0634 0331   JMP ac3+31
0635 1b2f   DSZ ac3+2f
0636 1137   ISZ pc+37 ; 66d
0637 222d   LDA 0 ac2+2d
0638 1d34   DSZ @pc+34 ; @66c
0639 083e   JMS 3e
063a 022e   JMP ac2+2e
063b 0e45   JMS @ac2+45
063c 1f39   DSZ @ac3+39
063d 2143   LDA 0 pc+43 ; 680
063e 0b41   JMS ac3+41
063f 293f   LDA 1 pc+3f ; 67e
0640 073b   JMP @ac3+3b
0641 475d   STA 0 @ac3+5d
0642 4852   STA 1 52
0643 4953   STA 1 pc+53 ; 696
0644 4a54   STA 1 ac2+54
0645 4b55   STA 1 ac3+55
0646 4c56   STA 1 @56
0647 4d57   STA 1 @pc+57 ; @69e
0648 4e58   STA 1 @ac2+58
0649 4f5b   STA 1 @ac3+5b
064a 505c   STA 2 5c
064b 1a18   DSZ ac2+18
064c 2727   LDA 0 @ac3+27
064d 2424   LDA 0 @24
064e 1361   ISZ ac3+61
064f 5a59   STA 3 ac2+59
0650 2012   LDA 0 12
0651 6c5e   DOBS 1 1e
0652 285f   LDA 1 5f
0653 2366   LDA 0 ac3+66
0654 626b   DOAS 0 2b
0655 1c51   DSZ @51
0656 1e67   DSZ @ac2+67
0657 262b   LDA 0 @ac2+2b
0658 606a   NIOS 0 2a
0659 6568   DICS 0 28
065a 6416   DOB 0 16
065b 1014   ISZ 14
065c 2a2c   LDA 1 ac2+2c
065d 6369   DIBS 0 29

; data
065e 6a6b   DOAS 1 2b
065f 6c6d   DOBS 1 2d
0660 6e6f   DOCS 1 2f
0661 5c5d   STA 3 @5d
0662 5e5f   STA 3 @ac2+5f
0663 6061   NIOS 0 21
0664 6263   DOAS 0 23
0665 6465   DOBS 0 25
0666 0067   JMP 67
0667 6600   DOC 0 0
0668 0069   JMP 69
0669 6800   NIO 1 0
066a 0000   JMP 0

;------------------------------------------------------------
; jump table
066b 0000   JMP 0	; 0 halt
066c 0020   ; 01
066d 0025   ; 02
066e 0714   ; 03
066f 0744   ; 04
0670 0765   ; 05
0671 08af   ; 06
0672 1a62   ; 07
0673 092c   ; 08
0674 093f   ; 09
0675 097b   ; 0a
0676 0991   ; 0b
0677 092c   ; 0c
0678 09b5   ; 0d
0679 09b7   ; 0e
067a 0a1a   ; 0f
067b 0c8d   ; 10
067c 0d43   ; 11
067d 1766   ; 12
067e 0fa8   ; 13
067f 09b9   ; 14
0680 0fb7   ; 15
0681 0fce   ; 16
0682 0fd0   ; 17
0683 1036   ; 18
0684 1a66   ; 19
0685 09b6   ; 1a
0686 1937   ; 1b
0687 1048   ; 1c
0688 15ea   ; 1d
0689 1060   ; 1e
068a 08a4   ; 1f
068b 1082   ; 20
068c ffff   
068d 1631   ; 22
068e 1130   ; 23
068f 15ac   ; 24
0690 1144   ; 25
0691 1151   ; 26
0692 ffff   SKPDZ 3 3f
0693 11c9   ; 28
0694 11f2   ; 29
0695 163e   ; 2a
0696 18c9   ; 2b
0697 1207   ; 2c
0698 121f   ; 2d
0699 125d   ; 2e
069a 09b5   ; 2f nop
069b 135c   ; 30
069c 1363   ; 31
069d 18db   ; 32
069e 13ec   ; 33
069f 13fe   ; 34
06a0 1406   ; 35
06a1 143b   ; 36
06a2 ffff   SKPDZ 3 3f
06a3 1475   ; 38
06a4 147b   ; 39
06a5 ffff   SKPDZ 3 3f
06a6 ffff   SKPDZ 3 3f
06a7 ffff   SKPDZ 3 3f
06a8 09b6   ; 3d
06a9 1486   ; 3e
06aa 14a1   ; 3f
06ab 15de   ; 40
06ac 1512   ; 41
06ad 0122   ; 42
06ae 09b5   ; 43 nop
06af 1743   ; 44
06b0 152a   ; 45
06b1 ffff   SKPDZ 3 3f
06b2 1741   ; 47
06b3 173d   ; 48
06b4 15dc   ; 49
06b5 173f   ; 4a
06b6 0169   ; 4f
06b7 14ff   ; 50
06b8 1774   ; 51
06b9 17c4   ; 52
06ba 1544   ; 53
06bb 1562   ; 54
06bc 172b   ; 55
06bd 1578   ; 56
06be 1594   ; 57
06bf 15d4   ; 58
06c0 15d6   ; 59
06c1 164e   ; 5a
06c2 1717   ; 5b
06c3 1774   ; 5c; same as 51
06c4 1a17   ; 5d
06c5 1a1f   ; 5e
06c6 18b8   ; 5f
06c7 18c7   ; 60
06c8 18f1   ; 61
06c9 18fe   ; 62
06ca 1925   ; 63
06cb 1964   ; 64
06cc 1968   ; 65
06cd 1a04   ; 66
06ce 19e6   ; 67
06cf 1950   ; 68
06d0 1952   ; 69
06d1 1962   ; 6a
06d2 1954   ; 6b
06d3 1966   ; 6c
06d4 1956   ; 6d
06d5 1976   ; 6e
06d6 18fb   ; 6f
06d7 197e   ; 70
06d8 19a0   ; 71
06d9 19a2   ; 72
06da 19a4   ; 73
06db 19dd   ; 74
06dc 19e1   ; 75
06dd 19e0   ; 76
06de 19eb   ; 77
06df 19f5   ; 78
06e0 1a18   ; 79
06e1 1a1a   ; 7a
06e2 1a20   ; 7b
06e3 1a0f   ; 7c
06e4 1a23   ; 7d
06e5 1a27   ; 7e
06e6 1a2b   ; 7f
06e7 1a37   ; 80
06e8 1a3a   ; 81
06e9 ffff   SKPDZ 3 3f
06ea 09b5   83 ; nop
06eb 1a3d   ; 84
06ec 1a43   ; 85
06ed 1a4f   ; 86
06ee 1a57   ; 87
06ef 19aa   ; 88
06f0 1945   ; 89
06f1 18f9   ; 8a
06f2 1946   ; 8b
06f3 1a5c   ; 8c
06f4 ffff   SKPDZ 3 3f
06f5 ffff   SKPDZ 3 3f
06f6 ffff   SKPDZ 3 3f
06f7 ffff   SKPDZ 3 3f
06f8 18eb   ; 91
06f9 0130   ; 92
06fa ffff   SKPDZ 3 3f

; some form of data pointer table used in jms @43 and jms @44
06fb 0000   JMP 0
06fc 1dd8   DSZ @pc-28 ; @6d4
06fd 1aa7   DSZ ac2-59
06fe 1ba7   DSZ ac3-59
06ff 0165   JMP pc+65 ; 764
0700 0200   JMP ac2+0
0701 038c   JMP ac3-74
0702 0204   JMP ac2+4
0703 0284   JMP ac2-7c
0704 052b   JMP @pc+2b ; @72f
0705 053b   JMP @pc+3b ; @740
0706 054b   JMP @pc+4b ; @751
0707 05ab   JMP @pc-55 ; @6b2
0708 0505   JMP @pc+5 ; @70d
0709 050d   JMP @pc+d ; @716
070a 051b   JMP @pc+1b ; @725
070b 01f8   JMP pc-8 ; 703
070c 0626   JMP @ac2+26
070d 065e   JMP @ac2+5e
070e 0349   JMP ac3+49
070f 0a15   JMS ac2+15
0710 0304   JMP ac3+4
0711 ffff   AND#S 3 3 sbn
0712 ffff   AND#S 3 3 sbn
0713 ffff   AND#S 3 3 sbn

0714 492c   STA 1 pc+2c ; 740
0715 412c   STA 0 pc+2c ; 741
0716 387b   LDA 3 7b
0717 e600   ADD 3 0
0718 0c43   JMS @43
0719 0002   
071a 38ca   LDA 3 ca
071b fa0d   MOV# 3 3 snr
071c 0108   JMP pc+8 ; 724
071d d500   SUB 2 2
071e fd00   SUB 3 3
071f 58ca   STA 3 ca
0720 58cb   STA 3 cb
0721 291f   LDA 1 pc+1f ; 740
0722 211f   LDA 0 pc+1f ; 741
0723 0441   JMP @41
0724 8550   SUBL 0 0
0725 0c40   JMS @40
0726 0022   
0727 38cb   LDA 3 cb
0728 20fb   LDA 0 fb
0729 820d   MOV# 0 0 snr
072a 01f3   JMP pc-d ; 71d
072b 50b8   STA 2 b8
072c 2916   LDA 1 pc+16 ; 742
072d 8d1a   SUB# 0 1 szc
072e 0103   JMP pc+3 ; 731
072f a500   SUB 1 0
0730 01fd   JMP pc-3 ; 72d
0731 e522   SUB 3 0 szc
0732 e600   ADD 3 0
0733 0c40   JMS @40
0734 0022   
0735 510e   STA 2 pc+e ; 743
0736 386d   LDA 3 6d
0737 f600   ADD 3 2
0738 20b8   LDA 0 b8
0739 ad00   SUB 1 1
073a 38d6   LDA 3 d6
073b ed0d   SUB# 3 1 snr
073c 01e2   JMP pc-1e ; 71e
073d 9600   ADD 0 2
073e ab00   INC 1 1
073f 01fc   JMP pc-4 ; 73b
0740 00d3   JMP d3
0741 000b   JMP b
0742 002a   JMP 2a
0743 0141   JMP pc+41 ; 784

jms @40 04
0744 38c6   LDA 3 c6
0745 fa0c   MOV# 3 3 szr
0746 0441   JMP @41
0747 38a6   LDA 3 a6
0748 fa0c   MOV# 3 3 szr
0749 0111   JMP pc+11 ; 75a
074a 2063   LDA 0 63
074b 820c   MOV# 0 0 szr
074c 010b   JMP pc+b ; 757
074d 28c4   LDA 1 c4
074e aa50   MOVL 1 1
074f 20a9   LDA 0 a9
0750 8e00   ADD 0 1
0751 3048   LDA 2 48
0752 8500   SUB 0 0
0753 0c3f   JMS @3f
0754 a200   MOV 1 0
0755 386e   LDA 3 6e
0756 e600   ADD 3 0
0757 ac00   ADC 1 1
0758 0c40   JMS @40
0759 0028   
075a 210a   LDA 0 pc+a ; 764
075b 0c40   JMS @40
075c 002a   
075d 38a6   LDA 3 a6
075e 58a7   STA 3 a7
075f fd00   SUB 3 3
0760 58a6   STA 3 a6
0761 58aa   STA 3 aa
0762 58af   STA 3 af
0763 0441   JMP @41

0764 0045   

jms @40 05
0765 4977   STA 1 pc+77 ; 7dc
0766 5178   STA 2 pc+78 ; 7de
0767 3885   LDA 3 85
0768 5975   STA 3 pc+75 ; 7dd
0769 2853   LDA 1 53
076a ed0c   SUB# 3 1 szr
076b 0108   JMP pc+8 ; 773
076c 0c40   JMS @40
076d 000d   
076e 01f9   JMP pc-7 ; 767

076f 0060   JMP 60; storage
0770 8000   CMP 0 0
0771 0049   JMP 49
0772 4000   STA 0 0

0773 41fe   STA 0 pc-2 ; 771
0774 3853   LDA 3 53
0775 9f00   AND 0 3
0776 fa0c   MOV# 3 3 szr
0777 0116   JMP pc+16 ; 78d
0778 39f7   LDA 3 pc-9 ; 76f
0779 9f00   AND 0 3
077a 31f5   LDA 2 pc-b ; 76f
077b dd0d   SUB# 2 3 snr
077c 0104   JMP pc+4 ; 780
077d 396f   LDA 3 pc+6f ; 7ec
077e fa0c   MOV# 3 3 szr
077f 0111   JMP pc+11 ; 790
0780 396b   LDA 3 pc+6b ; 7eb
0781 fa0d   MOV# 3 3 snr
0782 0115   JMP pc+15 ; 797
0783 39ed   LDA 3 pc-13 ; 770
0784 2167   LDA 0 pc+67 ; 7eb
0785 e600   ADD 3 0
0786 fd00   SUB 3 3
0787 5964   STA 3 pc+64 ; 7eb
0788 395a   LDA 3 pc+5a ; 7e2
0789 e600   ADD 3 0
078a 0964   JMS pc+64 ; 7ee
078b 21e6   LDA 0 pc-1a ; 771
078c 01db   JMP pc-25 ; 767
078d 395f   LDA 3 pc+5f ; 7ec
078e fa0d   MOV# 3 3 snr
078f 0108   JMP pc+8 ; 797
0790 395c   LDA 3 pc+5c ; 7ec
0791 21e1   LDA 0 pc-1f ; 772
0792 e600   ADD 3 0
0793 fd00   SUB 3 3
0794 5958   STA 3 pc+58 ; 7ec
0795 3977   LDA 3 pc+77 ; 80c
0796 01f3   JMP pc-d ; 789
0797 3851   LDA 3 51
0798 9d0c   SUB# 0 3 szr
0799 010f   JMP pc+f ; 7a8
079a fd00   SUB 3 3
079b 5947   STA 3 pc+47 ; 7e2
079c 5970   STA 3 pc+70 ; 80c
079d 5946   STA 3 pc+46 ; 7e3
079e 5948   STA 3 pc+48 ; 7e6
079f 5948   STA 3 pc+48 ; 7e7
07a0 5944   STA 3 pc+44 ; 7e4
07a1 5944   STA 3 pc+44 ; 7e5
07a2 5948   STA 3 pc+48 ; 7ea
07a3 2146   LDA 0 pc+46 ; 7e9
07a4 094a   JMS pc+4a ; 7ee
07a5 2937   LDA 1 pc+37 ; 7dc
07a6 3138   LDA 2 pc+38 ; 7de
07a7 0c41   JMS @41
07a8 3137   LDA 2 pc+37 ; 7df
07a9 9700   AND 0 2
07aa f50c   SUB# 3 2 szr
07ab 0150   JMP pc+50 ; 7fb
07ac 3134   LDA 2 pc+34 ; 7e0
07ad 9700   AND 0 2
07ae 3847   LDA 3 47
07af dd1b   SUB# 2 3 snc
07b0 0104   JMP pc+4 ; 7b4
07b1 d290   MOVR 2 2
07b2 5134   STA 2 pc+34 ; 7e6
07b3 0109   JMP pc+9 ; 7bc
07b4 3849   LDA 3 49
07b5 dd1b   SUB# 2 3 snc
07b6 010c   JMP pc+c ; 7c2
07b7 d290   MOVR 2 2
07b8 d290   MOVR 2 2
07b9 d290   MOVR 2 2
07ba d270   MOVL 2 2
07bb 512c   STA 2 pc+2c ; 7e7
07bc 392b   LDA 3 pc+2b ; 7e7
07bd 3129   LDA 2 pc+29 ; 7e6
07be fa50   MOVL 3 3
07bf f600   ADD 3 2
07c0 5123   STA 2 pc+23 ; 7e3
07c1 01e4   JMP pc-1c ; 7a5
07c2 384b   LDA 3 4b
07c3 dd1b   SUB# 2 3 snc
07c4 0105   JMP pc+5 ; 7c9
07c5 3848   LDA 3 48
07c6 f790   ANDR 3 2
07c7 511d   STA 2 pc+1d ; 7e4
07c8 01dd   JMP pc-23 ; 7a5
07c9 3918   LDA 3 pc+18 ; 7e1
07ca dc1b   ADC# 2 3 snc
07cb 0109   JMP pc+9 ; 7d4
07cc fd50   SUBL 3 3
07cd f790   ANDR 3 2
07ce d270   MOVL 2 2
07cf d2c0   MOVS 2 2
07d0 3912   LDA 3 pc+12 ; 7e2
07d1 5111   STA 2 pc+11 ; 7e2
07d2 f705   AND 3 2 snr
07d3 01d1   JMP pc-2f ; 7a4
07d4 dd0d   SUB# 2 3 snr
07d5 01d0   JMP pc-30 ; 7a5
07d6 384c   LDA 3 4c
07d7 f790   ANDR 3 2
07d8 d290   MOVR 2 2
07d9 d2c0   MOVS 2 2
07da 5132   STA 2 pc+32 ; 80c
07db 01ca   JMP pc-36 ; 7a5

07dc 0000   JMP 0; storage
07dd 0007   JMP 7
07de 001e   JMP 1e
07df 00f0   JMP f0
07e0 000f   JMP f
07e1 0009   JMP 9
07e2 0000   JMP 0
07e3 0000   JMP 0
07e4 0000   JMP 0
07e5 0000   JMP 0
07e6 0000   JMP 0
07e7 0000   JMP 0
07e8 078b   JMP @ac3-75
07e9 0500   JMP @pc+0 ; @7e9
07ea 0000   JMP 0
07eb 0000   JMP 0
07ec 0000   JMP 0
07ed 0284   JMP ac2-7c

07ee 59fa   STA 3 pc-6 ; 7e8
07ef 1085   ISZ 85
07f0 31ed   LDA 2 pc-13 ; 7dd
07f1 3886   LDA 3 86
07f2 de00   ADD 2 3
07f3 2852   LDA 1 52
07f4 ef00   AND 3 1
07f5 31f8   LDA 2 pc-8 ; 7ed
07f6 b600   ADD 1 2
07f7 0d01   JMS @pc+1 ; @7f8
07f8 0879   JMS 79
07f9 39ef   LDA 3 pc-11 ; 7e8
07fa 0300   JMP ac3+0

07fb 396b   LDA 3 pc+6b ; 866
07fc f50c   SUB# 3 2 szr
07fd 011f   JMP pc+1f ; 81c
07fe 39ec   LDA 3 pc-14 ; 7ea
07ff e50d   SUB# 3 0 snr
0800 01a5   JMP pc-5b ; 7a5
0801 41e9   STA 0 pc-17 ; 7ea
0802 31de   LDA 2 pc-22 ; 7e0
0803 9700   AND 0 2
0804 3963   LDA 3 pc+63 ; 867
0805 f70d   AND# 3 2 snr
0806 0107   JMP pc+7 ; 80d
0807 384c   LDA 3 4c
0808 f70d   AND# 3 2 snr
0809 0104   JMP pc+4 ; 80d
080a 395e   LDA 3 pc+5e ; 868
080b 0103   JMP pc+3 ; 80e
080c 0000   JMP 0
080d fd00   SUB 3 3
080e 59d7   STA 3 pc-29 ; 7e5
080f 215a   LDA 0 pc+5a ; 869
0810 e600   ADD 3 0
0811 3956   LDA 3 pc+56 ; 867
0812 f50c   SUB# 3 2 szr
0813 0103   JMP pc+3 ; 816
0814 8300   INC 0 0
0815 018f   JMP pc-71 ; 7a4
0816 384c   LDA 3 4c
0817 f700   AND 3 2
0818 395b   LDA 3 pc+5b ; 873
0819 f600   ADD 3 2
081a 3a00   LDA 3 ac2+0
081b 0114   JMP pc+14 ; 82f
081c 3853   LDA 3 53
081d f70d   AND# 3 2 snr
081e 0113   JMP pc+13 ; 831
081f 9000   CMP 0 2
0820 3852   LDA 3 52
0821 f700   AND 3 2
0822 39c9   LDA 3 pc-37 ; 7eb
0823 f600   ADD 3 2
0824 3857   LDA 3 57
0825 f70c   AND# 3 2 szr
0826 0103   JMP pc+3 ; 829
0827 51c4   STA 2 pc-3c ; 7eb
0828 01ad   JMP pc-53 ; 7d5
0829 3856   LDA 3 56
082a f500   SUB 3 2
082b 51c0   STA 2 pc-40 ; 7eb
082c 2148   LDA 0 pc+48 ; 874
082d 31b5   LDA 2 pc-4b ; 7e2
082e c600   ADD 2 0
082f e600   ADD 3 0
0830 01e5   JMP pc-1b ; 815
0831 3851   LDA 3 51
0832 f70d   AND# 3 2 snr
0833 0114   JMP pc+14 ; 847
0834 9000   CMP 0 2
0835 3852   LDA 3 52
0836 f700   AND 3 2
0837 39b5   LDA 3 pc-4b ; 7ec
0838 f600   ADD 3 2
0839 3857   LDA 3 57
083a f70c   AND# 3 2 szr
083b 0103   JMP pc+3 ; 83e
083c 51b0   STA 2 pc-50 ; 7ec
083d 01eb   JMP pc-15 ; 828
083e 3856   LDA 3 56
083f f500   SUB 3 2
0840 51ac   STA 2 pc-54 ; 7ec
0841 2134   LDA 0 pc+34 ; 875
0842 31ca   LDA 2 pc-36 ; 80c
0843 e600   ADD 3 0
0844 c600   ADD 2 0
0845 09a9   JMS pc-57 ; 7ee
0846 01e2   JMP pc-1e ; 828
0847 9200   MOV 0 2
0848 399c   LDA 3 pc-64 ; 7e4
0849 e2c0   MOVS 3 0
084a 8290   MOVR 0 0
084b 3998   LDA 3 pc-68 ; 7e3
084c fac0   MOVS 3 3
084d e690   ADDR 3 0
084e c600   ADD 2 0
084f 3927   LDA 3 pc+27 ; 876
0850 e600   ADD 3 0
0851 8000   CMP 0 0
0852 3993   LDA 3 pc-6d ; 7e5
0853 fa0d   MOV# 3 3 snr
0854 01c1   JMP pc-3f ; 815
0855 3047   LDA 2 47
0856 5122   STA 2 pc+22 ; 878
0857 3d20   LDA 3 @pc+20 ; @877
0858 fa0c   MOV# 3 3 szr
0859 0995   JMS pc-6b ; 7ee
085a 3885   LDA 3 85
085b 5982   STA 3 pc-7e ; 7dd
085c 2853   LDA 1 53
085d ed0c   SUB# 3 1 szr
085e 0104   JMP pc+4 ; 862
085f 0c40   JMS @40
0860 000d   
0861 01f9   JMP pc-7 ; 85a
0862 1916   DSZ pc+16 ; 878
0863 01f6   JMP pc-a ; 859
0864 01b1   JMP pc-4f ; 815
0865 0a99   JMS ac2-67
0866 0050   JMP 50
0867 0008   JMP 8
0868 0200   JMP ac2+0
0869 1000   ISZ 0
086a 0002   JMP 2
086b 0004   JMP 4
086c 0010   JMP 10
086d 0020   JMP 20
086e 0040   JMP 40
086f 0080   JMP 80
0870 0100   JMP pc+0 ; 870
0871 0008   JMP 8
0872 0771   JMP @ac3+71
0873 086a   JMS 6a
0874 8000   CMP 0 0
0875 4000   STA 0 0
0876 de00   ADD 2 3
0877 0a97   JMS ac2-69
0878 0000   JMP 0

0879 4121   STA 0 pc+21 ; 89a
087a 5921   STA 3 pc+21 ; 89b
087b 3927   LDA 3 pc+27 ; 8a2
087c e70d   AND# 3 0 snr
087d 0119   JMP pc+19 ; 896
087e 8000   CMP 0 0
087f 3924   LDA 3 pc+24 ; 8a3
0880 e700   AND 3 0
0881 391b   LDA 3 pc+1b ; 89c
0882 9c1b   ADC# 0 3 snc
0883 0108   JMP pc+8 ; 88b
0884 3919   LDA 3 pc+19 ; 89d
0885 9c1b   ADC# 0 3 snc
0886 0107   JMP pc+7 ; 88d
0887 3917   LDA 3 pc+17 ; 89e
0888 9c1b   ADC# 0 3 snc
0889 0106   JMP pc+6 ; 88f
088a 0107   JMP pc+7 ; 891
088b 3915   LDA 3 pc+15 ; 8a0
088c 0104   JMP pc+4 ; 890
088d 3914   LDA 3 pc+14 ; 8a1
088e 0102   JMP pc+2 ; 890
088f 3910   LDA 3 pc+10 ; 89f
0890 e500   SUB 3 0
0891 8000   CMP 0 0
0892 3911   LDA 3 pc+11 ; 8a3
0893 e700   AND 3 0
0894 390e   LDA 3 pc+e ; 8a2
0895 e600   ADD 3 0
0896 4200   STA 0 ac2+0
0897 2103   LDA 0 pc+3 ; 89a
0898 3903   LDA 3 pc+3 ; 89b
0899 0301   JMP ac3+1

089a 403f   STA 0 3f
089b 07f8   JMP @ac3-8
089c 0181   JMP pc-7f ; 81d
089d 0101   JMP pc+1 ; 89e
089e 0081   JMP 81
089f 0012   JMP 12
08a0 0036   JMP 36
08a1 0024   JMP 24
08a2 2000   LDA 0 0
08a3 01ff   JMP pc-1 ; 8a2

jms @40 1f
08a4 2165   LDA 0 pc+65 ; 909
08a5 4061   STA 0 61
08a6 2164   LDA 0 pc+64 ; 90a
08a7 4062   STA 0 62
08a8 2163   LDA 0 pc+63 ; 90b
08a9 406b   STA 0 6b
08aa 2162   LDA 0 pc+62 ; 90c
08ab 406d   STA 0 6d
08ac 8500   SUB 0 0
08ad 4159   STA 0 pc+59 ; 906
08ae 8b05   INC 0 1 snr

jms @40 06
08af ad00   SUB 1 1
08b0 4957   STA 1 pc+57 ; 907
08b1 2061   LDA 0 61
08b2 4157   STA 0 pc+57 ; 909
08b3 2062   LDA 0 62
08b4 4156   STA 0 pc+56 ; 90a
08b5 206b   LDA 0 6b
08b6 4155   STA 0 pc+55 ; 90b
08b7 206d   LDA 0 6d
08b8 4154   STA 0 pc+54 ; 90c
08b9 8500   SUB 0 0
08ba 40be   STA 0 be
08bb 40b9   STA 0 b9
08bc 40ce   STA 0 ce
08bd 40cf   STA 0 cf
08be 0c40   JMS @40
08bf 001d   
08c0 fd00   SUB 3 3
08c1 58b8   STA 3 b8
08c2 40ba   STA 0 ba
08c3 9ac0   MOVS 0 3
08c4 fa4a   MOV#L 3 3 szc
08c5 0135   JMP pc+35 ; 8fa
08c6 0c40   JMS @40
08c7 0003   
08c8 d20d   MOV# 2 2 snr
08c9 0122   JMP pc+22 ; 8eb
08ca 28be   LDA 1 be
08cb b600   ADD 1 2
08cc 50be   STA 2 be
08cd 28b8   LDA 1 b8
08ce 30b9   LDA 2 b9
08cf b600   ADD 1 2
08d0 50b9   STA 2 b9
08d1 1074   ISZ 74
08d2 8208   MOV# 0 0; nop
08d3 3134   LDA 2 pc+34 ; 907
08d4 d20d   MOV# 2 2 snr
08d5 011f   JMP pc+1f ; 8f4
08d6 30ba   LDA 2 ba
08d7 dac0   MOVS 2 3
08d8 fa4a   MOV#L 3 3 szc
08d9 0113   JMP pc+13 ; 8ec
08da 392e   LDA 3 pc+2e ; 908
08db dc1b   ADC# 2 3 snc
08dc 0110   JMP pc+10 ; 8ec
08dd 30bc   LDA 2 bc
08de 1128   ISZ pc+28 ; 906
08df 3927   LDA 3 pc+27 ; 906
08e0 dd0c   SUB# 2 3 szr
08e1 010b   JMP pc+b ; 8ec
08e2 0c40   JMS @40
08e3 001d   
08e4 0c40   JMS @40
08e5 0003   
08e6 d20d   MOV# 2 2 snr
08e7 1074   ISZ 74
08e8 20be   LDA 0 be
08e9 40fc   STA 0 fc
08ea 0441   JMP @41
08eb 1074   ISZ 74
08ec 0c40   JMS @40
08ed 001d   
08ee 0c40   JMS @40
08ef 000a   
08f0 820c   MOV# 0 0 szr
08f1 01f7   JMP pc-9 ; 8e8
08f2 20ba   LDA 0 ba
08f3 01cd   JMP pc-33 ; 8c0
08f4 20ba   LDA 0 ba
08f5 0c40   JMS @40
08f6 001c   
08f7 820c   MOV# 0 0 szr
08f8 01f4   JMP pc-c ; 8ec
08f9 01ef   JMP pc-11 ; 8e8
08fa 0c40   JMS @40
08fb 0008   
08fc 20cf   LDA 0 cf
08fd 820d   MOV# 0 0 snr
08fe 010f   JMP pc+f ; 90d
08ff 20ce   LDA 0 ce
0900 824b   MOV#L 0 0 snc
0901 01c9   JMP pc-37 ; 8ca
0902 50bd   STA 2 bd
0903 8550   SUBL 0 0
0904 40ce   STA 0 ce
0905 01c5   JMP pc-3b ; 8ca
0906 0003   JMP 3
0907 0000   JMP 0
0908 0059   JMP 59
0909 0003   JMP 3
090a 0038   JMP 38
090b 000e   JMP e
090c 0000   JMP 0
090d 38be   LDA 3 be
090e fa0d   MOV# 3 3 snr
090f 39f8   LDA 3 pc-8 ; 907
0910 fa0c   MOV# 3 3 szr
0911 01c0   JMP pc-40 ; 8d1
0912 1074   ISZ 74
0913 8208   MOV# 0 0; nop
0914 019b   JMP pc-65 ; 8af

; called with jms @5b memclr(dst, cnt)
0915 8500   SUB 0 0
0916 3300   LDA 2 ac3+0
0917 2b01   LDA 1 ac3+1
0918 a900   NEG 1 1
0919 4200   STA 0 ac2+0
091a d300   INC 2 2
091b ab04   INC 1 1 szr
091c 01fd   JMP pc-3 ; 919
091d 0302   JMP ac3+2

; called with jms @5c memcpy(src, dst, cnt)
091e 590d   STA 3 pc+d ; 92b
091f 2b02   LDA 1 ac3+2
0920 a900   NEG 1 1
0921 3300   LDA 2 ac3+0
0922 3b01   LDA 3 ac3+1
0923 2200   LDA 0 ac2+0
0924 4300   STA 0 ac3+0
0925 fb00   INC 3 3
0926 d300   INC 2 2
0927 ab04   INC 1 1 szr
0928 01fb   JMP pc-5 ; 923
0929 3902   LDA 3 pc+2 ; 92b
092a 0303   JMP ac3+3

092b 014d   return address storage

jms @40 08 0c
092c fd00   SUB 3 3
092d 58cf   STA 3 cf
092e 3910   LDA 3 pc+10 ; 93e
092f e50d   SUB# 3 0 snr
0930 010a   JMP pc+a ; 93a
0931 3852   LDA 3 52
0932 e700   AND 3 0
0933 4105   STA 0 pc+5 ; 938
0934 3854   LDA 3 54
0935 e70d   AND# 3 0 snr
0936 0441   JMP @41
0937 0c40   JMS @40
0938 0042   
0939 0441   JMP @41
093a 1074   ISZ 74
093b 0c40   JMS @40
093c 001d   
093d 01f6   JMP pc-a ; 933
093e 00fe   JMP fe

jms @40 09
093f 3850   LDA 3 50
0940 e705   AND 3 0 snr
0941 0c42   JMS @42
0942 e50c   
0943 0103   JMP pc+3 ; 946
0944 2056   LDA 0 56
0945 0c42   JMS @42
0946 3931   
0947 e50c   SUB# 3 0 szr
0948 0104   JMP pc+4 ; 94c
0949 fc00   ADC 3 3
094a 5889   STA 3 89
094b 01f9   JMP pc-7 ; 944
094c 392c   LDA 3 pc+2c ; 978
094d e50c   SUB# 3 0 szr
094e 0103   JMP pc+3 ; 951
094f fd00   SUB 3 3
0950 01fa   JMP pc-6 ; 94a
0951 8a00   MOV 0 1
0952 388b   LDA 3 8b
0953 fa0d   MOV# 3 3 snr
0954 0106   JMP pc+6 ; 95a
0955 0c40   JMS @40
0956 003d   
0957 aa0d   MOV# 1 1 snr
0958 0442   JMP @42
0959 0107   JMP pc+7 ; 960
095a 391f   LDA 3 pc+1f ; 979
095b e50c   SUB# 3 0 szr
095c 0104   JMP pc+4 ; 960
095d fc00   ADC 3 3
095e 588e   STA 3 8e
095f 01e5   JMP pc-1b ; 944
0960 aa50   MOVL 1 1
0961 3889   LDA 3 89
0962 fa0c   MOV# 3 3 szr
0963 ab00   INC 1 1
0964 0c43   JMS @43
0965 004c   
0966 20fb   LDA 0 fb
0967 388e   LDA 3 8e
0968 fa0d   MOV# 3 3 snr
0969 0442   JMP @42
096a 8a90   MOVR 0 1
096b 390f   LDA 3 pc+f ; 97a
096c ed00   SUB 3 1
096d fd00   SUB 3 3
096e 588e   STA 3 8e
096f aa4a   MOV#L 1 1 szc
0970 0442   JMP @42
0971 0c43   JMS @43
0972 0052   
0973 38fb   LDA 3 fb
0974 fa0c   MOV# 3 3 szr
0975 e200   MOV 3 0
0976 0442   JMP @42
0977 0036   JMP 36
0978 003e   JMP 3e
0979 0004   JMP 4
097a 0015   JMP 15

jms @40 0a
097b 40ba   STA 0 ba
097c 3854   LDA 3 54
097d 9c1a   ADC# 0 3 szc
097e 010d   JMP pc+d ; 98b
097f 390f   LDA 3 pc+f ; 98e
0980 9d0d   SUB# 0 3 snr
0981 010a   JMP pc+a ; 98b
0982 390b   LDA 3 pc+b ; 98d
0983 9c1a   ADC# 0 3 szc
0984 0108   JMP pc+8 ; 98c
0985 390a   LDA 3 pc+a ; 98f
0986 9d0d   SUB# 0 3 snr
0987 0105   JMP pc+5 ; 98c
0988 3908   LDA 3 pc+8 ; 990
0989 9d0d   SUB# 0 3 snr
098a 0102   JMP pc+2 ; 98c
098b 8500   SUB 0 0
098c 0441   JMP @41
098d 00db   JMP db
098e 00cc   JMP cc
098f 00f5   JMP f5
0990 00f7   JMP f7

jms @40 0b
0991 0c43   JMS @43
0992 0011   
0993 28fb   LDA 1 fb
0994 a205   MOV 1 0 snr
0995 0441   JMP @41
0996 3850   LDA 3 50
0997 e500   SUB 3 0
0998 814b   NEG#L 0 0 snc
0999 010d   JMP pc+d ; 9a6
099a 8a00   MOV 0 1
099b 38aa   LDA 3 aa
099c fa0c   MOV# 3 3 szr
099d 0114   JMP pc+14 ; 9b1
099e 2115   LDA 0 pc+15 ; 9b3
099f 0c40   JMS @40
09a0 002a   
09a1 2113   LDA 0 pc+13 ; 9b4
09a2 0c40   JMS @40
09a3 002a   
09a4 fc00   ADC 3 3
09a5 010b   JMP pc+b ; 9b0
09a6 38aa   LDA 3 aa
09a7 fa0d   MOV# 3 3 snr
09a8 0109   JMP pc+9 ; 9b1
09a9 210b   LDA 0 pc+b ; 9b4
09aa 0c40   JMS @40
09ab 002a   
09ac 2107   LDA 0 pc+7 ; 9b3
09ad 0c40   JMS @40
09ae 002a   
09af fd00   SUB 3 3
09b0 58aa   STA 3 aa
09b1 a200   MOV 1 0
09b2 0441   JMP @41
09b3 0045   JMP 45
09b4 0046   JMP 46

jms @40 2f 0d
09b5 0441   JMP @41

jms @40 3d, 1a
09b6 0442   JMP @42

jms @40 0e
09b7 fd00   SUB 3 3
09b8 0103   JMP pc+3 ; 9bb

jms @40 14
09b9 2153   LDA 0 pc+53 ; a0c
09ba fd50   SUBL 3 3
09bb 5953   STA 3 pc+53 ; a0e
09bc 384d   LDA 3 4d
09bd 4952   STA 1 pc+52 ; a0f
09be 5152   STA 2 pc+52 ; a10
09bf d400   ADC 2 2
09c0 e500   SUB 3 0
09c1 d300   INC 2 2
09c2 824b   MOV#L 0 0 snc
09c3 01fd   JMP pc-3 ; 9c0
09c4 e660   ADDL 3 0
09c5 284f   LDA 1 4f
09c6 a600   ADD 1 0
09c7 40fb   STA 0 fb
09c8 2049   LDA 0 49
09c9 0c44   JMS @44
09ca 0014   
09cb d250   MOVL 2 2
09cc 2048   LDA 0 48
09cd b600   ADD 1 2
09ce 50fb   STA 2 fb
09cf 0c44   JMS @44
09d0 0014   
09d1 d500   SUB 2 2
09d2 393c   LDA 3 pc+3c ; a0e
09d3 fa0d   MOV# 3 3 snr
09d4 0107   JMP pc+7 ; 9db
09d5 3094   LDA 2 94
09d6 393b   LDA 3 pc+3b ; a11
09d7 df00   AND 2 3
09d8 f600   ADD 3 2
09d9 f600   ADD 3 2
09da f650   ADDL 3 2
09db 513d   STA 2 pc+3d ; a18
09dc d500   SUB 2 2
09dd 3930   LDA 3 pc+30 ; a0d
09de 5935   STA 3 pc+35 ; a13
09df 0c43   JMS @43
09e0 0093   
09e1 3856   LDA 3 56
09e2 28fb   LDA 1 fb
09e3 bd0d   SUB# 1 3 snr
09e4 0107   JMP pc+7 ; 9eb
09e5 d300   INC 2 2
09e6 192d   DSZ pc+2d ; a13
09e7 01f8   JMP pc-8 ; 9df
09e8 2927   LDA 1 pc+27 ; a0f
09e9 3127   LDA 2 pc+27 ; a10
09ea 0442   JMP @42
09eb 5129   STA 2 pc+29 ; a14
09ec ad50   SUBL 1 1
09ed 384a   LDA 3 4a
09ee 5924   STA 3 pc+24 ; a12
09ef 0c43   JMS @43
09f0 0054   
09f1 0c44   JMS @44
09f2 0093   
09f3 d300   INC 2 2
09f4 ab00   INC 1 1
09f5 191e   DSZ pc+1e ; a13
09f6 0107   JMP pc+7 ; 9fd
09f7 311d   LDA 2 pc+1d ; a14
09f8 3856   LDA 3 56
09f9 58fb   STA 3 fb
09fa 0c44   JMS @44
09fb 0093   
09fc 01ec   JMP pc-14 ; 9e8
09fd 1915   DSZ pc+15 ; a12
09fe 01f1   JMP pc-f ; 9ef
09ff 390f   LDA 3 pc+f ; a0e
0a00 fa0d   MOV# 3 3 snr
0a01 0105   JMP pc+5 ; a06
0a02 190c   DSZ pc+c ; a0e
0a03 8208   MOV# 0 0; nop
0a04 3847   LDA 3 47
0a05 01e9   JMP pc-17 ; 9ee
0a06 3855   LDA 3 55
0a07 58fb   STA 3 fb
0a08 0c44   JMS @44
0a09 0093   
0a0a d300   INC 2 2
0a0b 01ed   JMP pc-13 ; 9f8
0a0c 0009   JMP 9
0a0d 0030   JMP 30
0a0e 0001   JMP 1
0a0f ffff   AND#S 3 3 sbn
0a10 0b95   JMS ac3-6b
0a11 0fc0   JMS @ac3-40
0a12 0000   JMP 0
0a13 0000   JMP 0
0a14 0028   JMP 28
0a15 ff0b   AND# 3 3 snc
0a16 2536   LDA 0 @pc+36 ; @a4c
0a17 48c0   STA 1 c0
0a18 8e7a   ADD#L 0 1 szc
0a19 7000   NIO 2 0

jms @40 0f
0a1a 4097   STA 0 97
0a1b 4898   STA 1 98
0a1c 5099   STA 2 99
0a1d 38fb   LDA 3 fb
0a1e 589a   STA 3 9a
0a1f 8500   SUB 0 0
0a20 67a0   SKPDN 0 20
0a21 8550   SUBL 0 0
0a22 4175   STA 0 pc+75 ; a97
0a23 8550   SUBL 0 0
0a24 67c4   SKPDZ 0 4
0a25 4173   STA 0 pc+73 ; a98
0a26 2085   LDA 0 85
0a27 820d   MOV# 0 0 snr
0a28 0107   JMP pc+7 ; a2f
0a29 2170   LDA 0 pc+70 ; a99
0a2a 8290   MOVR 0 0
0a2b 8260   MOVL 0 0
0a2c 416d   STA 0 pc+6d ; a99
0a2d 6250   DOAS 0 10
0a2e 010b   JMP pc+b ; a39
0a2f 2074   LDA 0 74
0a30 0c43   JMS @43
0a31 0007   
0a32 38fb   LDA 3 fb
0a33 fa0c   MOV# 3 3 szr
0a34 01f5   JMP pc-b ; a29
0a35 2164   LDA 0 pc+64 ; a99
0a36 8290   MOVR 0 0
0a37 8250   MOVL 0 0
0a38 01f4   JMP pc-c ; a2c
0a39 3885   LDA 3 85
0a3a fa05   MOV 3 3 snr
0a3b 010f   JMP pc+f ; a4a
0a3c 2886   LDA 1 86
0a3d 3960   LDA 3 pc+60 ; a9d
0a3e be00   ADD 1 3
0a3f 2300   LDA 0 ac3+0
0a40 40fb   STA 0 fb
0a41 0d01   JMS @pc+1 ; @a42
0a42 05f5   JMP @pc-b ; @a37
0a43 ab00   INC 1 1
0a44 3853   LDA 3 53
0a45 bd0d   SUB# 1 3 snr
0a46 ad00   SUB 1 1
0a47 4886   STA 1 86
0a48 1885   DSZ 85
0a49 8208   MOV# 0 0; nop
0a4a 2887   LDA 1 87
0a4b 0c43   JMS @43
0a4c 0047   
0a4d 20fb   LDA 0 fb
0a4e 8204   MOV 0 0 szr
0a4f 0130   JMP pc+30 ; a7f
0a50 ab00   INC 1 1
0a51 3856   LDA 3 56
0a52 ef00   AND 3 1
0a53 0c43   JMS @43
0a54 0047   
0a55 20fb   LDA 0 fb
0a56 820c   MOV# 0 0 szr
0a57 0128   JMP pc+28 ; a7f
0a58 2088   LDA 0 88
0a59 8204   MOV 0 0 szr
0a5a 0492   JMP @92
0a5b 0d01   JMS @pc+1 ; @a5c
0a5c 05ef   JMP @pc-11 ; @a4b
0a5d 0c40   JMS @40
0a5e 0009   
0a5f 820d   MOV# 0 0 snr
0a60 011f   JMP pc+1f ; a7f
0a61 2856   LDA 1 56
0a62 8d0d   SUB# 0 1 snr
0a63 011c   JMP pc+1c ; a7f
0a64 fd00   SUB 3 3
0a65 3893   LDA 3 93
0a66 fa04   MOV 3 3 szr
0a67 0492   JMP @92
0a68 3853   LDA 3 53
0a69 9d0d   SUB# 0 3 snr
0a6a 011b   JMP pc+1b ; a85
0a6b 392f   LDA 3 pc+2f ; a9a
0a6c 9d0d   SUB# 0 3 snr
0a6d 0112   JMP pc+12 ; a7f
0a6e 388d   LDA 3 8d
0a6f fa0d   MOV# 3 3 snr
0a70 0104   JMP pc+4 ; a74
0a71 38ad   LDA 3 ad
0a72 fa0d   MOV# 3 3 snr
0a73 010c   JMP pc+c ; a7f
0a74 2887   LDA 1 87
0a75 40fb   STA 0 fb
0a76 0c44   JMS @44
0a77 0047   
0a78 3923   LDA 3 pc+23 ; a9b
0a79 e505   SUB 3 0 snr
0a7a 0112   JMP pc+12 ; a8c
0a7b 3856   LDA 3 56
0a7c ab00   INC 1 1
0a7d ef00   AND 3 1
0a7e 4887   STA 1 87
0a7f 2097   LDA 0 97
0a80 2898   LDA 1 98
0a81 3099   LDA 2 99
0a82 389a   LDA 3 9a
0a83 58fb   STA 3 fb
0a84 0442   JMP @42	; return
0a85 388d   LDA 3 8d
0a86 fa0d   MOV# 3 3 snr
0a87 0117   JMP pc+17 ; a9e
0a88 fd00   SUB 3 3
0a89 588d   STA 3 8d
0a8a 5889   STA 3 89
0a8b 0113   JMP pc+13 ; a9e
0a8c fc00   ADC 3 3
0a8d 588d   STA 3 8d
0a8e 8500   SUB 0 0
0a8f 450d   STA 0 @pc+d ; @a9c
0a90 20ad   LDA 0 ad
0a91 820c   MOV# 0 0 szr
0a92 0103   JMP pc+3 ; a95
0a93 58b4   STA 3 b4
0a94 01e7   JMP pc-19 ; a7b
0a95 58b3   STA 3 b3
0a96 01e5   JMP pc-1b ; a7b

0a97 0001   JMP 1; storage
0a98 0000   JMP 0
0a99 0000   JMP 0
0a9a 0081   JMP 81
0a9b 00c2   JMP c2
0a9c 0c8c   JMS @8c
0a9d 0284   JMP ac2-7c
0a9e fc00   ADC 3 3
0a9f 5893   STA 3 93
0aa0 083a   JMS 3a
0aa1 8290   MOVR 0 0
0aa2 82c0   MOVS 0 0
0aa3 8290   MOVR 0 0
0aa4 8290   MOVR 0 0
0aa5 4094   STA 0 94
0aa6 083a   JMS 3a
0aa7 8290   MOVR 0 0
0aa8 2894   LDA 1 94
0aa9 a600   ADD 1 0
0aaa 4094   STA 0 94
0aab 3119   LDA 2 pc+19 ; ac4
0aac 2a00   LDA 1 ac2+0
0aad a80d   CMP# 1 1 snr
0aae 0036   JMP 36
0aaf a50c   SUB# 1 0 szr
0ab0 0111   JMP pc+11 ; ac1
0ab1 2a01   LDA 1 ac2+1
0ab2 4895   STA 1 95
0ab3 2a02   LDA 1 ac2+2
0ab4 a2c0   MOVS 1 0
0ab5 3856   LDA 3 56
0ab6 ef00   AND 3 1
0ab7 4896   STA 1 96
0ab8 e705   AND 3 0 snr
0ab9 0106   JMP pc+6 ; abf
0aba 290b   LDA 1 pc+b ; ac5
0abb 4888   STA 1 88
0abc 0832   JMS 32
0abd ad00   SUB 1 1
0abe 4888   STA 1 88
0abf 2896   LDA 1 96
0ac0 0495   JMP @95
0ac1 2848   LDA 1 48
0ac2 b600   ADD 1 2
0ac3 01e9   JMP pc-17 ; aac
0ac4 0ac6   JMS ac2-3a
0ac5 00fe   JMP fe
0ac6 0150   JMP pc+50 ; b16
0ac7 0030   JMP 30
0ac8 00c1   JMP c1
0ac9 0154   JMP pc+54 ; b1d
0aca 0030   JMP 30
0acb 00c2   JMP c2
0acc 0153   JMP pc+53 ; b1f
0acd 0c54   JMS @54
0ace 00ff   JMP ff
0acf 0208   JMP ac2+8
0ad0 0030   JMP 30
0ad1 00c3   JMP c3
0ad2 0295   JMP ac2-6b
0ad3 0030   JMP 30
0ad4 00c4   JMP c4
0ad5 0443   JMP @43
0ad6 0030   JMP 30
0ad7 00c7   JMP c7
0ad8 044c   JMP @4c
0ad9 0030   JMP 30
0ada 00c8   JMP c8
0adb 044d   JMP @4d
0adc 0030   JMP 30
0add 00c9   JMP c9
0ade 0452   JMP @52
0adf 0030   JMP 30
0ae0 00ca   JMP ca
0ae1 010c   JMP pc+c ; aed
0ae2 0b9a   JMS ac3-66
0ae3 00cb   JMP cb
0ae4 050e   JMP @pc+e ; @af2
0ae5 0b9a   JMS ac3-66
0ae6 00cf   JMP cf
0ae7 0510   JMP @pc+10 ; @af7
0ae8 0b9a   JMS ac3-66
0ae9 00d0   JMP d0
0aea 0454   JMP @54
0aeb 0030   JMP 30
0aec 00d1   JMP d1
0aed 0513   JMP @pc+13 ; @b00
0aee 0b96   JMS ac3-6a
0aef 00d2   JMP d2
0af0 0514   JMP @pc+14 ; @b04
0af1 0030   JMP 30
0af2 00d3   JMP d3
0af3 05cc   JMP @pc-34 ; @abf
0af4 0030   JMP 30
0af5 00d4   JMP d4
0af6 05d8   JMP @pc-28 ; @ace
0af7 0030   JMP 30
0af8 00d5   JMP d5
0af9 04c6   JMP @c6
0afa 0b9a   JMS ac3-66
0afb 00d6   JMP d6
0afc 0193   JMP pc-6d ; a8f
0afd 0b9a   JMS ac3-66
0afe 00c5   JMP c5
0aff 0341   JMP ac3+41
0b00 0030   JMP 30
0b01 00d7   JMP d7
0b02 0404   JMP @4
0b03 0b9e   JMS ac3-62
0b04 00ce   JMP ce
0b05 0405   JMP @5
0b06 0b9e   JMS ac3-62
0b07 00cd   JMP cd
0b08 05c5   JMP @pc-3b ; @acd
0b09 0c65   JMS @65
0b0a 00ff   JMP ff
0b0b 05d4   JMP @pc-2c ; @adf
0b0c 0c77   JMS @77
0b0d 00ff   JMP ff
0b0e 0048   JMP 48
0b0f 0030   JMP 30
0b10 00d9   JMP d9
0b11 004c   JMP 4c
0b12 0030   JMP 30
0b13 00da   JMP da
0b14 00c3   JMP c3
0b15 0bc5   JMS ac3-3b
0b16 00db   JMP db
0b17 00c6   JMP c6
0b18 0bcb   JMS ac3-35
0b19 00dc   JMP dc
0b1a 00cc   JMP cc
0b1b 0bdc   JMS ac3-24
0b1c 00dd   JMP dd
0b1d 00d3   JMP d3
0b1e 0b9a   JMS ac3-66
0b1f 00de   JMP de
0b20 00d0   JMP d0
0b21 0bd6   JMS ac3-2a
0b22 00df   JMP df
0b23 04cc   JMP @cc
0b24 0ba5   JMS ac3-5b
0b25 00e0   JMP e0
0b26 04d2   JMP @d2
0b27 0ba5   JMS ac3-5b
0b28 00e1   JMP e1
0b29 0146   JMP pc+46 ; b6f
0b2a 0030   JMP 30
0b2b 00e2   JMP e2
0b2c 014c   JMP pc+4c ; b78
0b2d 0bdc   JMS ac3-24
0b2e 0285   JMP ac2-7b
0b2f 0246   JMP ac2+46
0b30 0b96   JMS ac3-6a
0b31 00e4   JMP e4
0b32 0248   JMP ac2+48
0b33 0b96   JMS ac3-6a
0b34 00e5   JMP e5
0b35 024c   JMP ac2+4c
0b36 0ba5   JMS ac3-5b
0b37 00e6   JMP e6
0b38 0250   JMP ac2+50
0b39 0b96   JMS ac3-6a
0b3a 00e7   JMP e7
0b3b 0252   JMP ac2+52
0b3c 0ba5   JMS ac3-5b
0b3d 00e8   JMP e8
0b3e 0254   JMP ac2+54
0b3f 0b96   JMS ac3-6a
0b40 00e9   JMP e9
0b41 0258   JMP ac2+58
0b42 0030   JMP 30
0b43 00ea   JMP ea
0b44 02cc   JMP ac2-34
0b45 0030   JMP 30
0b46 00eb   JMP eb
0b47 0343   JMP ac3+43
0b48 0030   JMP 30
0b49 00ec   JMP ec
0b4a 0483   JMP @83
0b4b 0030   JMP 30
0b4c 00ed   JMP ed
0b4d 048c   JMP @8c
0b4e 0030   JMP 30
0b4f 00ee   JMP ee
0b50 0492   JMP @92
0b51 0030   JMP 30
0b52 00ef   JMP ef
0b53 0385   JMP ac3-7b
0b54 0030   JMP 30
0b55 00f0   JMP f0
0b56 0386   JMP ac3-7a
0b57 0030   JMP 30
0b58 00f1   JMP f1
0b59 0606   JMP @ac2+6
0b5a 0030   JMP 30
0b5b 00f2   JMP f2
0b5c 0546   JMP @pc+46 ; @ba2
0b5d 0b9a   JMS ac3-66
0b5e 00f3   JMP f3
0b5f 0486   JMP @86
0b60 0030   JMP 30
0b61 00f4   JMP f4
0b62 0608   JMP @ac2+8
0b63 0030   JMP 30
0b64 00f5   JMP f5
0b65 0609   JMP @ac2+9
0b66 0030   JMP 30
0b67 00f6   JMP f6
0b68 060c   JMP @ac2+c
0b69 0030   JMP 30
0b6a 00f7   JMP f7
0b6b 0612   JMP @ac2+12
0b6c 0030   JMP 30
0b6d 00f8   JMP f8
0b6e 0614   JMP @ac2+14
0b6f 0030   JMP 30
0b70 00f9   JMP f9
0b71 040d   JMP @d
0b72 0030   JMP 30
0b73 0280   JMP ac2-80
0b74 048d   JMP @8d
0b75 0030   JMP 30
0b76 0281   JMP ac2-7f
0b77 0418   JMP @18
0b78 0030   JMP 30
0b79 0282   JMP ac2-7e
0b7a 0498   JMP @98
0b7b 0030   JMP 30
0b7c 0283   JMP ac2-7d
0b7d 04d7   JMP @d7
0b7e 0bb2   JMS ac3-4e
0b7f 028d   JMP ac2-73
0b80 00d7   JMP d7
0b81 0bac   JMS ac3-54
0b82 0284   JMP ac2-7c
0b83 02c3   JMP ac2-3d
0b84 0b9a   JMS ac3-66
0b85 00e3   JMP e3
0b86 05d3   JMP @pc-2d ; @b59
0b87 0bc3   JMS ac3-3d
0b88 00db   JMP db
0b89 068c   JMP @ac2-74
0b8a 0030   JMP 30
0b8b 0286   JMP ac2-7a
0b8c 0496   JMP @96
0b8d 0bdc   JMS ac3-24
0b8e 0287   JMP ac2-79
0b8f 0241   JMP ac2+41
0b90 0bdc   JMS ac3-24
0b91 0288   JMP ac2-78
0b92 1860   DSZ 60
0b93 0038   JMP 38
0b94 00ff   JMP ff
0b95 ffff   AND#S 3 3 sbn
0b96 0832   JMS 32
0b97 0d76   JMS @pc+76 ; @c0d
0b98 0951   JMS pc+51 ; be9
0b99 01fd   JMP pc-3 ; b96
0b9a 0832   JMS 32
0b9b 0d73   JMS @pc+73 ; @c0e
0b9c 094d   JMS pc+4d ; be9
0b9d 01fd   JMP pc-3 ; b9a
0b9e 0832   JMS 32
0b9f 8a00   MOV 0 1
0ba0 396a   LDA 3 pc+6a ; c0a
0ba1 e504   SUB 3 0 szr
0ba2 01fc   JMP pc-4 ; b9e
0ba3 2856   LDA 1 56
0ba4 0030   JMP 30
0ba5 0832   JMS 32
0ba6 0d69   JMS @pc+69 ; @c0f
0ba7 0942   JMS pc+42 ; be9
0ba8 0832   JMS 32
0ba9 0d64   JMS @pc+64 ; @c0d
0baa 093f   JMS pc+3f ; be9
0bab 01fa   JMP pc-6 ; ba5
0bac 0832   JMS 32
0bad 0d61   JMS @pc+61 ; @c0e
0bae 093b   JMS pc+3b ; be9
0baf 0832   JMS 32
0bb0 0d5f   JMS @pc+5f ; @c0f
0bb1 0938   JMS pc+38 ; be9
0bb2 0832   JMS 32
0bb3 ad00   SUB 1 1
0bb4 3858   LDA 3 58
0bb5 9d0c   SUB# 0 3 szr
0bb6 0103   JMP pc+3 ; bb9
0bb7 083a   JMS 3a
0bb8 ac00   ADC 1 1
0bb9 489e   STA 1 9e
0bba 0d54   JMS @pc+54 ; @c0e
0bbb 389e   LDA 3 9e
0bbc fa0c   MOV# 3 3 szr
0bbd a900   NEG 1 1
0bbe 3904   LDA 3 pc+4 ; bc2
0bbf ee00   ADD 3 1
0bc0 0929   JMS pc+29 ; be9
0bc1 01ee   JMP pc-12 ; baf
0bc2 0064   JMP 64
0bc3 fc00   ADC 3 3
0bc4 588b   STA 3 8b
0bc5 0832   JMS 32
0bc6 0d47   JMS @pc+47 ; @c0d
0bc7 0922   JMS pc+22 ; be9
0bc8 0935   JMS pc+35 ; bfd
0bc9 0929   JMS pc+29 ; bf2
0bca 2946   LDA 1 pc+46 ; c10
0bcb 0832   JMS 32
0bcc 0d42   JMS @pc+42 ; @c0e
0bcd 307d   LDA 2 7d
0bce d20d   MOV# 2 2 snr
0bcf 488c   STA 1 8c
0bd0 308b   LDA 2 8b
0bd1 507d   STA 2 7d
0bd2 0917   JMS pc+17 ; be9
0bd3 092a   JMS pc+2a ; bfd
0bd4 091e   JMS pc+1e ; bf2
0bd5 293c   LDA 1 pc+3c ; c11
0bd6 0832   JMS 32
0bd7 0d38   JMS @pc+38 ; @c0f
0bd8 0911   JMS pc+11 ; be9
0bd9 0924   JMS pc+24 ; bfd
0bda 0918   JMS pc+18 ; bf2
0bdb 2937   LDA 1 pc+37 ; c12
0bdc 0832   JMS 32
0bdd 0d32   JMS @pc+32 ; @c0f
0bde 0c40   JMS @40
0bdf 0018   
0be0 0912   JMS pc+12 ; bf2
0be1 091c   JMS pc+1c ; bfd
0be2 3928   LDA 3 pc+28 ; c0a
0be3 e50d   SUB# 3 0 snr
0be4 0038   JMP 38
0be5 3854   LDA 3 54
0be6 e50c   SUB# 3 0 szr
0be7 0036   JMP 36
0be8 0038   JMP 38
0be9 589b   STA 3 9b
0bea 3922   LDA 3 pc+22 ; c0c
0beb 9290   MOVR 0 2
0bec dd04   SUB 2 3 szr
0bed 01f1   JMP pc-f ; bde
0bee 0c40   JMS @40
0bef 0018   
0bf0 0902   JMS pc+2 ; bf2
0bf1 0c9b   JMS @9b
0bf2 589c   STA 3 9c
0bf3 409d   STA 0 9d
0bf4 489e   STA 1 9e
0bf5 fc00   ADC 3 3
0bf6 5888   STA 3 88
0bf7 083a   JMS 3a
0bf8 fd00   SUB 3 3
0bf9 5888   STA 3 88
0bfa 209d   LDA 0 9d
0bfb 289e   LDA 1 9e
0bfc 049c   JMP @9c
0bfd 589b   STA 3 9b
0bfe 3853   LDA 3 53
0bff bd0d   SUB# 1 3 snr
0c00 049b   JMP @9b
0c01 48fb   STA 1 fb
0c02 2887   LDA 1 87
0c03 0c44   JMS @44
0c04 0047   
0c05 ab00   INC 1 1
0c06 3856   LDA 3 56
0c07 ef00   AND 3 1
0c08 4887   STA 1 87
0c09 049b   JMP @9b
0c0a 0081   JMP 81
0c0b 0027   JMP 27
0c0c 0026   JMP 26
0c0d 0c41   JMS @41
0c0e 0c13   JMS @13
0c0f 0c28   JMS @28
0c10 00dc   JMP dc
0c11 00df   JMP df
0c12 00dd   JMP dd
0c13 589f   STA 3 9f
0c14 ac00   ADC 1 1
0c15 48a0   STA 1 a0
0c16 28a0   LDA 1 a0
0c17 9290   MOVR 0 2
0c18 384e   LDA 3 4e
0c19 f513   SUB 3 2 snc
0c1a 049f   JMP @9f
0c1b 384d   LDA 3 4d
0c1c f51a   SUB# 3 2 szc
0c1d 049f   JMP @9f
0c1e a80d   CMP# 1 1 snr
0c1f ad00   SUB 1 1
0c20 aa50   MOVL 1 1
0c21 ba50   MOVL 1 3
0c22 fa50   MOVL 3 3
0c23 ee00   ADD 3 1
0c24 ce00   ADD 2 1
0c25 48a0   STA 1 a0
0c26 083a   JMS 3a
0c27 01ef   JMP pc-11 ; c16
0c28 589b   STA 3 9b
0c29 3858   LDA 3 58
0c2a ad00   SUB 1 1
0c2b 9d0c   SUB# 0 3 szr
0c2c 0103   JMP pc+3 ; c2f
0c2d 083a   JMS 3a
0c2e ad50   SUBL 1 1
0c2f 489e   STA 1 9e
0c30 09e3   JMS pc-1d ; c13
0c31 aa52   MOVL 1 1 szc
0c32 ac00   ADC 1 1
0c33 389e   LDA 3 9e
0c34 ee00   ADD 3 1
0c35 9290   MOVR 0 2
0c36 39d5   LDA 3 pc-2b ; c0b
0c37 f50c   SUB# 3 2 szr
0c38 049b   JMP @9b
0c39 489e   STA 1 9e
0c3a 083a   JMS 3a
0c3b 09d8   JMS pc-28 ; c13
0c3c 389e   LDA 3 9e
0c3d a94a   NEG#L 1 1 szc
0c3e fb00   INC 3 3
0c3f ea00   MOV 3 1
0c40 049b   JMP @9b
0c41 589b   STA 3 9b
0c42 09d1   JMS pc-2f ; c13

; data
0c43 a80d   CMP# 1 1 snr
0c44 ad00   SUB 1 1
0c45 ae50   ADDL 1 1
0c46 ba50   MOVL 1 3
0c47 ee00   ADD 3 1
0c48 9290   MOVR 0 2
0c49 39c2   LDA 3 pc-3e ; c0b
0c4a f50c   SUB# 3 2 szr
0c4b 049b   JMP @9b
0c4c 489e   STA 1 9e
0c4d 083a   JMS 3a
0c4e 09c5   JMS pc-3b ; c13
0c4f 389e   LDA 3 9e
0c50 a94a   NEG#L 1 1 szc
0c51 be00   ADD 1 3
0c52 ea00   MOV 3 1
0c53 049b   JMP @9b
0c54 083a   JMS 3a
0c55 09ec   JMS pc-14 ; c41
0c56 3846   LDA 3 46
0c57 4b00   STA 1 ac3+0
0c58 083a   JMS 3a
0c59 09ba   JMS pc-46 ; c13
0c5a 3846   LDA 3 46
0c5b 4b01   STA 1 ac3+1
0c5c 0000   JMP 0
0c5d 09cb   JMS pc-35 ; c28
0c5e 3846   LDA 3 46
0c5f 4b02   STA 1 ac3+2
0c60 083a   JMS 3a
0c61 09c7   JMS pc-39 ; c28
0c62 3846   LDA 3 46
0c63 4b03   STA 1 ac3+3
0c64 0038   JMP 38
0c65 3124   LDA 2 pc+24 ; c89
0c66 5124   STA 2 pc+24 ; c8a
0c67 083a   JMS 3a
0c68 0da6   JMS @pc-5a ; @c0e
0c69 a80d   CMP# 1 1 snr
0c6a 01fd   JMP pc-3 ; c67
0c6b 48fb   STA 1 fb
0c6c 2920   LDA 1 pc+20 ; c8c
0c6d 0c44   JMS @44
0c6e 0042   
0c6f ab00   INC 1 1
0c70 491c   STA 1 pc+1c ; c8c
0c71 1919   DSZ pc+19 ; c8a
0c72 01f5   JMP pc-b ; c67
0c73 3918   LDA 3 pc+18 ; c8b
0c74 ed05   SUB 3 1 snr
0c75 4917   STA 1 pc+17 ; c8c
0c76 0038   JMP 38
0c77 083a   JMS 3a
0c78 0d96   JMS @pc-6a ; @c0e
0c79 fd00   SUB 3 3
0c7a aa0c   MOV# 1 1 szr
0c7b a80d   CMP# 1 1 snr
0c7c 0108   JMP pc+8 ; c84
0c7d 304a   LDA 2 4a
0c7e b41b   ADC# 1 2 snc
0c7f 0105   JMP pc+5 ; c84
0c80 490c   STA 1 pc+c ; c8c
0c81 3107   LDA 2 pc+7 ; c88
0c82 190a   DSZ pc+a ; c8c
0c83 0103   JMP pc+3 ; c86
0c84 5908   STA 3 pc+8 ; c8c
0c85 0038   JMP 38
0c86 de00   ADD 2 3
0c87 01fb   JMP pc-5 ; c82
0c88 0080   JMP 80
0c89 0080   JMP 80
0c8a 0000   JMP 0
0c8b 0200   JMP ac2+0
0c8c 0000   JMP 0

jms @40 10
0c8d 3876   LDA 3 76
0c8e 5881   STA 3 81
0c8f 0c40   JMS @40
0c90 001d   
0c91 9ac0   MOVS 0 3
0c92 fa4b   MOV#L 3 3 snc
0c93 011c   JMP pc+1c ; caf
0c94 396d   LDA 3 pc+6d ; d01
0c95 9d0c   SUB# 0 3 szr
0c96 010d   JMP pc+d ; ca3
0c97 38a8   LDA 3 a8
0c98 fa0c   MOV# 3 3 szr
0c99 0108   JMP pc+8 ; ca1
0c9a 38ae   LDA 3 ae
0c9b f80c   CMP# 3 3 szr
0c9c 010e   JMP pc+e ; caa
0c9d 3c5a   LDA 3 @5a
0c9e f80d   CMP# 3 3 snr
0c9f 010b   JMP pc+b ; caa
0ca0 fc00   ADC 3 3
0ca1 58c5   STA 3 c5
0ca2 010d   JMP pc+d ; caf
0ca3 315d   LDA 2 pc+5d ; d00
0ca4 3a00   LDA 3 ac2+0
0ca5 9d0d   SUB# 0 3 snr
0ca6 0109   JMP pc+9 ; caf
0ca7 d300   INC 2 2
0ca8 fa0c   MOV# 3 3 szr
0ca9 01fb   JMP pc-5 ; ca4
0caa 0c40   JMS @40
0cab 0008   
0cac 1074   ISZ 74
0cad 8208   MOV# 0 0; nop
0cae 01e1   JMP pc-1f ; c8f
0caf 20ae   LDA 0 ae
0cb0 800d   CMP# 0 0 snr
0cb1 0107   JMP pc+7 ; cb8
0cb2 3059   LDA 2 59
0cb3 9600   ADD 0 2
0cb4 2200   LDA 0 ac2+0
0cb5 4079   STA 0 79
0cb6 2201   LDA 0 ac2+1
0cb7 407a   STA 0 7a
0cb8 3876   LDA 3 76
0cb9 2081   LDA 0 81
0cba 2856   LDA 1 56
0cbb 9d00   SUB 0 3
0cbc bf00   AND 1 3
0cbd 58fc   STA 3 fc
0cbe 0c40   JMS @40
0cbf 0025   
0cc0 38a4   LDA 3 a4
0cc1 5975   STA 3 pc+75 ; d36
0cc2 ad00   SUB 1 1
0cc3 8500   SUB 0 0
0cc4 388f   LDA 3 8f
0cc5 d550   SUBL 2 2
0cc6 dd00   SUB 2 3
0cc7 303d   LDA 2 3d
0cc8 fa0d   MOV# 3 3 snr
0cc9 0105   JMP pc+5 ; cce
0cca 3a00   LDA 3 ac2+0
0ccb ee00   ADD 3 1
0ccc 3a01   LDA 3 ac2+1
0ccd 0104   JMP pc+4 ; cd1
0cce 3a02   LDA 3 ac2+2
0ccf ee00   ADD 3 1
0cd0 3a03   LDA 3 ac2+3
0cd1 e600   ADD 3 0
0cd2 3a04   LDA 3 ac2+4
0cd3 ee00   ADD 3 1
0cd4 3a05   LDA 3 ac2+5
0cd5 e600   ADD 3 0
0cd6 3a06   LDA 3 ac2+6
0cd7 ee00   ADD 3 1
0cd8 3a07   LDA 3 ac2+7
0cd9 e600   ADD 3 0
0cda 0c40   JMS @40
0cdb 0016   
0cdc 38fc   LDA 3 fc
0cdd ee00   ADD 3 1
0cde 0c40   JMS @40
0cdf 0017   
0ce0 38fc   LDA 3 fc
0ce1 e600   ADD 3 0
0ce2 3230   LDA 2 ac2+30
0ce3 d20c   MOV# 2 2 szr
0ce4 0108   JMP pc+8 ; cec
0ce5 0c40   JMS @40
0ce6 0013   
0ce7 3079   LDA 2 79
0ce8 38ae   LDA 3 ae
0ce9 f80d   CMP# 3 3 snr
0cea d500   SUB 2 2
0ceb b601   ADD 1 2 skp
0cec ca00   MOV 2 1
0ced 5079   STA 2 79
0cee 48b2   STA 1 b2
0cef 8a00   MOV 0 1
0cf0 0c40   JMS @40
0cf1 0013   
0cf2 a200   MOV 1 0
0cf3 287a   LDA 1 7a
0cf4 38ae   LDA 3 ae
0cf5 f80c   CMP# 3 3 szr
0cf6 0106   JMP pc+6 ; cfc
0cf7 2860   LDA 1 60
0cf8 0c40   JMS @40
0cf9 0013   
0cfa fd00   SUB 3 3
0cfb 58c3   STA 3 c3
0cfc 8d1a   SUB# 0 1 szc
0cfd 8d00   SUB 0 1
0cfe 487a   STA 1 7a
0cff 0110   JMP pc+10 ; d0f
0d00 0d02   JMS @pc+2 ; @d02
0d01 00d7   JMP d7
0d02 00c9   JMP c9
0d03 00d4   JMP d4
0d04 00d5   JMP d5
0d05 00fa   JMP fa
0d06 00fb   JMP fb
0d07 00fc   JMP fc
0d08 00fd   JMP fd
0d09 00e3   JMP e3
0d0a 00f0   JMP f0
0d0b 00f1   JMP f1
0d0c 00ea   JMP ea
0d0d 0000   JMP 0
0d0e 0c8d   JMS @8d
0d0f 38a8   LDA 3 a8
0d10 fa0d   MOV# 3 3 snr
0d11 0105   JMP pc+5 ; d16
0d12 0c40   JMS @40
0d13 0035   
0d14 fd00   SUB 3 3
0d15 58a8   STA 3 a8
0d16 0c5c   JMS @5c
0d17 0060   
0d18 04e5   
0d19 0020   
0d1a 3059   LDA 2 59
0d1b 385a   LDA 3 5a
0d1c 2300   LDA 0 ac3+0
0d1d 800d   CMP# 0 0 snr
0d1e 0112   JMP pc+12 ; d30
0d1f 20ae   LDA 0 ae
0d20 800c   CMP# 0 0 szr
0d21 010f   JMP pc+f ; d30
0d22 2300   LDA 0 ac3+0
0d23 4201   STA 0 ac2+1
0d24 800d   CMP# 0 0 snr
0d25 0104   JMP pc+4 ; d29
0d26 d300   INC 2 2
0d27 fb00   INC 3 3
0d28 01f7   JMP pc-9 ; d1f
0d29 207a   LDA 0 7a
0d2a 4201   STA 0 ac2+1
0d2b 8400   ADC 0 0
0d2c 4202   STA 0 ac2+2
0d2d 445a   STA 0 @5a
0d2e 2079   LDA 0 79
0d2f 4459   STA 0 @59
0d30 20c5   LDA 0 c5
0d31 820d   MOV# 0 0 snr
0d32 0105   JMP pc+5 ; d37
0d33 8500   SUB 0 0
0d34 40c5   STA 0 c5
0d35 05d9   JMP @pc-27 ; @d0e
0d36 0000   JMP 0
0d37 fd00   SUB 3 3
0d38 588f   STA 3 8f
0d39 5890   STA 3 90
0d3a 5891   STA 3 91
0d3b 0c5b   JMS @5b
0d3c 00c7   JMP c7
0d3d 0011   JMP 11
0d3e fc00   ADC 3 3
0d3f 58f8   STA 3 f8
0d40 3862   LDA 3 62
0d41 58c4   STA 3 c4
0d42 0441   JMP @41

jms @40 11
0d43 28c7   LDA 1 c7
0d44 8d0d   SUB# 0 1 snr
0d45 0441   JMP @41
0d46 0c43   JMS @43
0d47 0009   
0d48 0c44   JMS @44
0d49 000a   
0d4a 8300   INC 0 0
0d4b 8d0c   SUB# 0 1 szr
0d4c 01fa   JMP pc-6 ; d46
0d4d 8500   SUB 0 0
0d4e 0c43   JMS @43
0d4f 0009   
0d50 30fb   LDA 2 fb
0d51 0c43   JMS @43
0d52 008e   
0d53 0c44   JMS @44
0d54 000f   
0d55 8300   INC 0 0

jms @40 60
0d56 18c7   DSZ c7
0d57 01f7   JMP pc-9 ; d4e
0d58 48c7   STA 1 c7
0d59 0d64   JMS @pc+64 ; @dbd
0d5a c013   CMP 2 0 snc
0d5b ab00   INC 1 1
0d5c fc00   ADC 3 3
0d5d 5965   STA 3 pc+65 ; dc2
0d5e 384a   LDA 3 4a
0d5f bc1a   ADC# 1 3 szc
0d60 0441   JMP @41
0d61 bd0d   SUB# 1 3 snr
0d62 055d   JMP @pc+5d ; @dbf
0d63 d500   SUB 2 2
0d64 0c43   JMS @43
0d65 008b   
0d66 20fb   LDA 0 fb
0d67 820d   MOV# 0 0 snr
0d68 011e   JMP pc+1e ; d86
0d69 3853   LDA 3 53
0d6a e70c   AND# 3 0 szr
0d6b 0103   JMP pc+3 ; d6e
0d6c d300   INC 2 2
0d6d 01f7   JMP pc-9 ; d64
0d6e 3851   LDA 3 51
0d6f e70c   AND# 3 0 szr
0d70 01fc   JMP pc-4 ; d6c
0d71 0c40   JMS @40
0d72 000d   
0d73 ad00   SUB 1 1
0d74 3850   LDA 3 50
0d75 e700   AND 3 0
0d76 0c43   JMS @43
0d77 0049   
0d78 38fb   LDA 3 fb
0d79 e50c   SUB# 3 0 szr
0d7a 01f2   JMP pc-e ; d6c
0d7b d300   INC 2 2
0d7c ab00   INC 1 1
0d7d 0c43   JMS @43
0d7e 008b   
0d7f 20fb   LDA 0 fb
0d80 820d   MOV# 0 0 snr
0d81 0104   JMP pc+4 ; d85
0d82 3853   LDA 3 53
0d83 e70d   AND# 3 0 snr
0d84 01f0   JMP pc-10 ; d74
0d85 0d39   JMS @pc+39 ; @dbe
0d86 d500   SUB 2 2
0d87 0c43   JMS @43
0d88 008b   
0d89 20fb   LDA 0 fb
0d8a 820d   MOV# 0 0 snr
0d8b 0534   JMP @pc+34 ; @dbf
0d8c 3853   LDA 3 53
0d8d e70c   AND# 3 0 szr
0d8e 0103   JMP pc+3 ; d91
0d8f d300   INC 2 2
0d90 01f7   JMP pc-9 ; d87
0d91 3851   LDA 3 51
0d92 e70d   AND# 3 0 snr
0d93 01fc   JMP pc-4 ; d8f
0d94 0c40   JMS @40
0d95 000d   
0d96 512a   STA 2 pc+2a ; dc0
0d97 8550   SUBL 0 0
0d98 d300   INC 2 2
0d99 0c43   JMS @43
0d9a 008b   
0d9b 38fb   LDA 3 fb
0d9c fa0d   MOV# 3 3 snr
0d9d 0106   JMP pc+6 ; da3
0d9e 2853   LDA 1 53
0d9f bf0c   AND# 1 3 szr
0da0 0103   JMP pc+3 ; da3
0da1 8300   INC 0 0
0da2 01f6   JMP pc-a ; d98
0da3 28c7   LDA 1 c7
0da4 0d19   JMS @pc+19 ; @dbd
0da5 c013   CMP 2 0 snc
0da6 ab00   INC 1 1
0da7 8d00   SUB 0 1
0da8 4119   STA 0 pc+19 ; dc1
0da9 3117   LDA 2 pc+17 ; dc0
0daa 4916   STA 1 pc+16 ; dc0
0dab 0c43   JMS @43
0dac 008b   
0dad 20fb   LDA 0 fb
0dae 3850   LDA 3 50
0daf e700   AND 3 0
0db0 0c43   JMS @43
0db1 0049   
0db2 38fb   LDA 3 fb
0db3 9d0c   SUB# 0 3 szr
0db4 01db   JMP pc-25 ; d8f
0db5 d300   INC 2 2
0db6 ab00   INC 1 1
0db7 190a   DSZ pc+a ; dc1
0db8 01f3   JMP pc-d ; dab
0db9 2907   LDA 1 pc+7 ; dc0
0dba 0d04   JMS @pc+4 ; @dbe
0dbb 4907   STA 1 pc+7 ; dc2
0dbc 0503   JMP @pc+3 ; @dbf
0dbd 0edb   JMS @ac2-25
0dbe 0f0c   JMS @ac3+c
0dbf 0e68   JMS @ac2+68
0dc0 0003   JMP 3
0dc1 0004   JMP 4
0dc2 ffff   AND#S 3 3 sbn
0dc3 0d56   JMS @pc+56 ; @e19
0dc4 c001   CMP 2 0 skp
0dc5 0105   JMP pc+5 ; dca
0dc6 0d53   JMS @pc+53 ; @e19
0dc7 c004   CMP 2 0 szr
0dc8 0441   JMP @41
0dc9 0120   JMP pc+20 ; de9
0dca 0d4f   JMS @pc+4f ; @e19
0dcb 0008   JMP 8
0dcc 0109   JMP pc+9 ; dd5
0dcd 0d4c   JMS @pc+4c ; @e19
0dce c010   CMP 2 0
0dcf 0102   JMP pc+2 ; dd1
0dd0 0119   JMP pc+19 ; de9
0dd1 0d48   JMS @pc+48 ; @e19
0dd2 0014   JMP 14
0dd3 0441   JMP @41
0dd4 0115   JMP pc+15 ; de9
0dd5 0d44   JMS @pc+44 ; @e19
0dd6 000c   JMP c
0dd7 0105   JMP pc+5 ; ddc
0dd8 0d41   JMS @pc+41 ; @e19
0dd9 c002   CMP 2 0 szc
0dda 0441   JMP @41
0ddb 010e   JMP pc+e ; de9
0ddc 0d3d   JMS @pc+3d ; @e19
0ddd 0012   JMP 12
0dde 0441   JMP @41
0ddf 0d3a   JMS @pc+3a ; @e19
0de0 c00f   CMP# 2 0 sbn
0de1 0102   JMP pc+2 ; de3
0de2 0106   JMP pc+6 ; de8
0de3 0d37   JMS @pc+37 ; @e1a
0de4 0001   JMP 1
0de5 0104   JMP pc+4 ; de9
0de6 0d33   JMS @pc+33 ; @e19
0de7 c014   CMP 2 0 szr
0de8 ab00   INC 1 1
0de9 0164   JMP pc+64 ; e4d
0dea 0d2f   JMS @pc+2f ; @e19
0deb 0004   JMP 4
0dec 012f   JMP pc+2f ; e1b
0ded 0d2c   JMS @pc+2c ; @e19
0dee c005   CMP 2 0 snr
0def 0441   JMP @41
0df0 0d29   JMS @pc+29 ; @e19
0df1 c014   CMP 2 0 szr
0df2 0441   JMP @41
0df3 38c7   LDA 3 c7
0df4 304c   LDA 2 4c
0df5 f41a   ADC# 3 2 szc
0df6 0441   JMP @41
0df7 0d22   JMS @pc+22 ; @e19
0df8 c001   CMP 2 0 skp
0df9 0441   JMP @41
0dfa 0d20   JMS @pc+20 ; @e1a
0dfb c002   CMP 2 0 szc
0dfc 01ec   JMP pc-14 ; de8
0dfd 01ec   JMP pc-14 ; de9
0dfe ab00   INC 1 1
0dff 0d68   JMS @pc+68 ; @e67
0e00 ab00   INC 1 1
0e01 01ef   JMP pc-11 ; df0
0e02 ab00   INC 1 1
0e03 0d16   JMS @pc+16 ; @e19
0e04 c00c   CMP# 2 0 szr
0e05 01f9   JMP pc-7 ; dfe
0e06 0d14   JMS @pc+14 ; @e1a
0e07 c002   CMP 2 0 szc
0e08 0441   JMP @41
0e09 01e0   JMP pc-20 ; de9
0e0a 0d0f   JMS @pc+f ; @e19
0e0b c005   CMP 2 0 snr
0e0c 0105   JMP pc+5 ; e11
0e0d 0d0c   JMS @pc+c ; @e19
0e0e c009   CMP# 2 0 skp
0e0f 01f3   JMP pc-d ; e02
0e10 01b3   JMP pc-4d ; dc3
0e11 0d08   JMS @pc+8 ; @e19
0e12 0013   JMP 13
0e13 0102   JMP pc+2 ; e15
0e14 0441   JMP @41
0e15 0d04   JMS @pc+4 ; @e19
0e16 0019   JMP 19
0e17 01d3   JMP pc-2d ; dea
0e18 01ab   JMP pc-55 ; dc3
0e19 0edb   JMS @ac2-25
0e1a 0ec0   JMS @ac2-40
0e1b 0dfe   JMS @pc-2 ; @e19
0e1c 0007   JMP 7
0e1d 0441   JMP @41
0e1e 0dfb   JMS @pc-5 ; @e19
0e1f c00e   CMP# 2 0 sez
0e20 0441   JMP @41
0e21 0df8   JMS @pc-8 ; @e19
0e22 c009   CMP# 2 0 skp
0e23 0441   JMP @41
0e24 0df5   JMS @pc-b ; @e19
0e25 c008   CMP# 2 0
0e26 0105   JMP pc+5 ; e2b
0e27 0df2   JMS @pc-e ; @e19
0e28 c014   CMP 2 0 szr
0e29 0109   JMP pc+9 ; e32
0e2a 0441   JMP @41
0e2b 0dee   JMS @pc-12 ; @e19
0e2c 000f   JMP f
0e2d 0106   JMP pc+6 ; e33
0e2e 0deb   JMS @pc-15 ; @e19
0e2f c013   CMP 2 0 snc
0e30 0102   JMP pc+2 ; e32
0e31 0441   JMP @41
0e32 ab00   INC 1 1
0e33 ab00   INC 1 1
0e34 0d33   JMS @pc+33 ; @e67
0e35 0d32   JMS @pc+32 ; @e67
0e36 ab00   INC 1 1
0e37 3847   LDA 3 47
0e38 bc1a   ADC# 1 3 szc
0e39 0441   JMP @41
0e3a 0ddf   JMS @pc-21 ; @e19
0e3b 0012   JMP 12
0e3c 0109   JMP pc+9 ; e45
0e3d 0ddc   JMS @pc-24 ; @e19
0e3e c012   CMP 2 0 szc
0e3f 0102   JMP pc+2 ; e41
0e40 0104   JMP pc+4 ; e44
0e41 0dd9   JMS @pc-27 ; @e1a
0e42 0001   JMP 1
0e43 0441   JMP @41
0e44 ab00   INC 1 1
0e45 0d20   JMS @pc+20 ; @e65
0e46 010b   JMP pc+b ; e51
0e47 3847   LDA 3 47
0e48 bc1a   ADC# 1 3 szc
0e49 0441   JMP @41
0e4a 0dd0   JMS @pc-30 ; @e1a
0e4b 8004   CMP 0 0 szr
0e4c ab00   INC 1 1
0e4d d550   SUBL 2 2
0e4e b51b   SUB# 1 2 snc
0e4f 0d17   JMS @pc+17 ; @e66
0e50 0441   JMP @41
0e51 0dc8   JMS @pc-38 ; @e19
0e52 800c   CMP# 0 0 szr
0e53 01f9   JMP pc-7 ; e4c
0e54 0dc6   JMS @pc-3a ; @e1a
0e55 c001   CMP 2 0 skp
0e56 0108   JMP pc+8 ; e5e
0e57 0dc3   JMS @pc-3d ; @e1a
0e58 0004   JMP 4
0e59 0103   JMP pc+3 ; e5c
0e5a 0dc0   JMS @pc-40 ; @e1a
0e5b c040   CMPL 2 0
0e5c ab00   INC 1 1
0e5d 01ef   JMP pc-11 ; e4c
0e5e 0d07   JMS @pc+7 ; @e65
0e5f 0104   JMP pc+4 ; e63
0e60 d550   SUBL 2 2
0e61 b51b   SUB# 1 2 snc
0e62 01ea   JMP pc-16 ; e4c
0e63 ab00   INC 1 1
0e64 01f3   JMP pc-d ; e57
0e65 0eff   JMS @ac2-1
0e66 0f0c   JMS @ac3+c
0e67 0eee   JMS @ac2-12
0e68 ad00   SUB 1 1
0e69 4944   STA 1 pc+44 ; ead
0e6a 8500   SUB 0 0
0e6b 4141   STA 0 pc+41 ; eac
0e6c 4153   STA 0 pc+53 ; ebf
0e6d 3941   LDA 3 pc+41 ; eae
0e6e 590b   STA 3 pc+b ; e79
0e6f 0c43   JMS @43
0e70 004f   
0e71 30fb   LDA 2 fb
0e72 514c   STA 2 pc+4c ; ebe
0e73 0c43   JMS @43
0e74 000d   
0e75 38fb   LDA 3 fb
0e76 fa0d   MOV# 3 3 snr
0e77 0110   JMP pc+10 ; e87
0e78 3146   LDA 2 pc+46 ; ebe
0e79 f70d   AND# 3 2 snr
0e7a 010a   JMP pc+a ; e84
0e7b 4135   STA 0 pc+35 ; eb0
0e7c 0c40   JMS @40
0e7d 000d   
0e7e 313f   LDA 2 pc+3f ; ebd
0e7f 292d   LDA 1 pc+2d ; eac
0e80 b600   ADD 1 2
0e81 292c   LDA 1 pc+2c ; ead
0e82 0e00   JMS @ac2+0
0e83 212d   LDA 0 pc+2d ; eb0
0e84 8300   INC 0 0
0e85 1127   ISZ pc+27 ; eac
0e86 01ed   JMP pc-13 ; e73
0e87 3938   LDA 3 pc+38 ; ebf
0e88 fa0c   MOV# 3 3 szr
0e89 0109   JMP pc+9 ; e92
0e8a 1135   ISZ pc+35 ; ebf
0e8b 8300   INC 0 0
0e8c 3923   LDA 3 pc+23 ; eaf
0e8d 59ec   STA 3 pc-14 ; e79
0e8e 291f   LDA 1 pc+1f ; ead
0e8f 0c43   JMS @43
0e90 0049   
0e91 01e0   JMP pc-20 ; e71
0e92 192d   DSZ pc+2d ; ebf
0e93 0106   JMP pc+6 ; e99
0e94 112b   ISZ pc+2b ; ebf
0e95 112a   ISZ pc+2a ; ebf
0e96 8300   INC 0 0
0e97 2916   LDA 1 pc+16 ; ead
0e98 01d5   JMP pc-2b ; e6d
0e99 1114   ISZ pc+14 ; ead
0e9a 38c7   LDA 3 c7
0e9b 2912   LDA 1 pc+12 ; ead
0e9c b300   INC 1 2
0e9d dd0c   SUB# 2 3 szr
0e9e 01cc   JMP pc-34 ; e6a
0e9f 0c43   JMS @43
0ea0 0049   
0ea1 30fb   LDA 2 fb
0ea2 8300   INC 0 0
0ea3 0c43   JMS @43
0ea4 000d   
0ea5 38fb   LDA 3 fb
0ea6 fa0d   MOV# 3 3 snr
0ea7 0441   JMP @41
0ea8 dd0d   SUB# 2 3 snr
0ea9 01d2   JMP pc-2e ; e7b
0eaa 1102   ISZ pc+2 ; eac
0eab 01f7   JMP pc-9 ; ea2
0eac 0008   JMP 8
0ead 0004   JMP 4
0eae f70d   AND# 3 2 snr
0eaf f50c   SUB# 3 2 szr
0eb0 000b   JMP b
0eb1 0f20   JMS @ac3+20
0eb2 0f47   JMS @ac3+47
0eb3 0f4c   JMS @ac3+4c
0eb4 0f63   JMS @ac3+63
0eb5 0f7d   JMS @ac3+7d
0eb6 0f84   JMS @ac3-7c
0eb7 0f94   JMS @ac3-6c
0eb8 0dc3   JMS @pc-3d ; @e7b
0eb9 0ded   JMS @pc-13 ; @ea6
0eba 0e1e   JMS @ac2+1e
0ebb 0e03   JMS @ac2+3
0ebc 0e0a   JMS @ac2+a
0ebd 0eb1   JMS @ac2-4f
0ebe 0066   JMP 66
0ebf 0001   JMP 1

0ec0 5118   STA 2 pc+18 ; ed8
0ec1 5918   STA 3 pc+18 ; ed9
0ec2 3300   LDA 2 ac3+0
0ec3 d24b   MOV#L 2 2 snc
0ec4 0107   JMP pc+7 ; ecb
0ec5 3915   LDA 3 pc+15 ; eda
0ec6 df0d   AND# 2 3 snr
0ec7 0103   JMP pc+3 ; eca
0ec8 a900   NEG 1 1
0ec9 a801   CMP 1 1 skp
0eca ab00   INC 1 1
0ecb 3856   LDA 3 56
0ecc f700   AND 3 2
0ecd 0c43   JMS @43
0ece 004f   
0ecf 38fb   LDA 3 fb
0ed0 df0c   AND# 2 3 szr
0ed1 0104   JMP pc+4 ; ed5
0ed2 3106   LDA 2 pc+6 ; ed8
0ed3 3906   LDA 3 pc+6 ; ed9
0ed4 0301   JMP ac3+1
0ed5 3103   LDA 2 pc+3 ; ed8
0ed6 3903   LDA 3 pc+3 ; ed9
0ed7 0302   JMP ac3+2

0ed8 0eb9   JMS @ac2-47
0ed9 0dee   JMS @pc-12 ; @ec7
0eda 4000   STA 0 0

0edb 51fd   STA 2 pc-3 ; ed8
0edc 59fd   STA 3 pc-3 ; ed9
0edd 3300   LDA 2 ac3+0
0ede d24b   MOV#L 2 2 snc
0edf 0107   JMP pc+7 ; ee6
0ee0 39fa   LDA 3 pc-6 ; eda
0ee1 df0d   AND# 2 3 snr
0ee2 0103   JMP pc+3 ; ee5
0ee3 a900   NEG 1 1
0ee4 a801   CMP 1 1 skp
0ee5 ab00   INC 1 1
0ee6 3856   LDA 3 56
0ee7 f700   AND 3 2
0ee8 0c43   JMS @43
0ee9 0049   
0eea 38fb   LDA 3 fb
0eeb dd0c   SUB# 2 3 szr
0eec 01e6   JMP pc-1a ; ed2
0eed 01e8   JMP pc-18 ; ed5
0eee 51ea   STA 2 pc-16 ; ed8
0eef 59ea   STA 3 pc-16 ; ed9
0ef0 a900   NEG 1 1
0ef1 a800   CMP 1 1
0ef2 38d7   LDA 3 d7
0ef3 bc1a   ADC# 1 3 szc
0ef4 0109   JMP pc+9 ; efd
0ef5 0c43   JMS @43
0ef6 004a   
0ef7 30fb   LDA 2 fb
0ef8 3850   LDA 3 50
0ef9 df00   AND 2 3
0efa 58fb   STA 3 fb
0efb 0c44   JMS @44
0efc 004a   
0efd 31db   LDA 2 pc-25 ; ed8
0efe 05db   JMP @pc-25 ; @ed9
0eff 51d9   STA 2 pc-27 ; ed8
0f00 59d9   STA 3 pc-27 ; ed9
0f01 0c43   JMS @43
0f02 0049   
0f03 30fb   LDA 2 fb
0f04 a900   NEG 1 1
0f05 a800   CMP 1 1
0f06 0c43   JMS @43
0f07 0049   
0f08 38fb   LDA 3 fb
0f09 dd0c   SUB# 2 3 szr
0f0a 01f3   JMP pc-d ; efd
0f0b 01c7   JMP pc-39 ; ed2
0f0c 51cc   STA 2 pc-34 ; ed8
0f0d 59cc   STA 3 pc-34 ; ed9
0f0e 38d7   LDA 3 d7
0f0f bc1a   ADC# 1 3 szc
0f10 01ed   JMP pc-13 ; efd
0f11 3d0e   LDA 3 @pc+e ; @f1f
0f12 bc1b   ADC# 1 3 snc
0f13 01ea   JMP pc-16 ; efd
0f14 3847   LDA 3 47
0f15 bd1a   SUB# 1 3 szc
0f16 01e7   JMP pc-19 ; efd
0f17 0c43   JMS @43
0f18 004a   
0f19 38fb   LDA 3 fb
0f1a 3051   LDA 2 51
0f1b d000   CMP 2 2
0f1c df00   AND 2 3
0f1d dc00   ADC 2 3
0f1e 01dc   JMP pc-24 ; efa
0f1f 0dc2   JMS @pc-3e ; @ee1
0f20 496f   STA 1 pc+6f ; f8f
0f21 d550   SUBL 2 2
0f22 b51a   SUB# 1 2 szc
0f23 0300   JMP ac3+0
0f24 596a   STA 3 pc+6a ; f8e
0f25 38c7   LDA 3 c7
0f26 bd00   SUB 1 3
0f27 3049   LDA 2 49
0f28 f41a   ADC# 3 2 szc
0f29 0118   JMP pc+18 ; f41
0f2a 0d67   JMS @pc+67 ; @f91
0f2b 8001   CMP 0 0 skp
0f2c 0115   JMP pc+15 ; f41
0f2d 0d64   JMS @pc+64 ; @f91
0f2e 8001   CMP 0 0 skp
0f2f 0102   JMP pc+2 ; f31
0f30 0113   JMP pc+13 ; f43
0f31 0d61   JMS @pc+61 ; @f92
0f32 000e   JMP e
0f33 010e   JMP pc+e ; f41
0f34 0d5e   JMS @pc+5e ; @f92
0f35 8004   CMP 0 0 szr
0f36 0102   JMP pc+2 ; f38
0f37 0108   JMP pc+8 ; f3f
0f38 0d5a   JMS @pc+5a ; @f92
0f39 0014   JMP 14
0f3a 0102   JMP pc+2 ; f3c
0f3b 0104   JMP pc+4 ; f3f
0f3c 0d56   JMS @pc+56 ; @f92
0f3d 0003   JMP 3
0f3e 0103   JMP pc+3 ; f41
0f3f 2950   LDA 1 pc+50 ; f8f
0f40 0d53   JMS @pc+53 ; @f93
0f41 394d   LDA 3 pc+4d ; f8e
0f42 0300   JMP ac3+0
0f43 0d4f   JMS @pc+4f ; @f92
0f44 800e   CMP# 0 0 sez
0f45 01fc   JMP pc-4 ; f41
0f46 01f9   JMP pc-7 ; f3f
0f47 ab00   INC 1 1
0f48 5946   STA 3 pc+46 ; f8e
0f49 0d47   JMS @pc+47 ; @f90
0f4a 01f7   JMP pc-9 ; f41
0f4b 0108   JMP pc+8 ; f53
0f4c 5942   STA 3 pc+42 ; f8e
0f4d 4942   STA 1 pc+42 ; f8f
0f4e 0d44   JMS @pc+44 ; @f92
0f4f 0018   JMP 18
0f50 0105   JMP pc+5 ; f55
0f51 aa0d   MOV# 1 1 snr
0f52 01ef   JMP pc-11 ; f41
0f53 ab00   INC 1 1
0f54 01ec   JMP pc-14 ; f40
0f55 3047   LDA 2 47
0f56 b41a   ADC# 1 2 szc
0f57 01ea   JMP pc-16 ; f41
0f58 0d3a   JMS @pc+3a ; @f92
0f59 0017   JMP 17
0f5a 01e5   JMP pc-1b ; f3f
0f5b 0d37   JMS @pc+37 ; @f92
0f5c c013   CMP 2 0 snc
0f5d 0102   JMP pc+2 ; f5f
0f5e 01e3   JMP pc-1d ; f41
0f5f 0d32   JMS @pc+32 ; @f91
0f60 0001   JMP 1
0f61 01de   JMP pc-22 ; f3f
0f62 01df   JMP pc-21 ; f41
0f63 592b   STA 3 pc+2b ; f8e
0f64 38c7   LDA 3 c7
0f65 bd00   SUB 1 3
0f66 3049   LDA 2 49
0f67 f41a   ADC# 3 2 szc
0f68 01d9   JMP pc-27 ; f41
0f69 0d28   JMS @pc+28 ; @f91
0f6a 8004   CMP 0 0 szr
0f6b 01d6   JMP pc-2a ; f41
0f6c 0d25   JMS @pc+25 ; @f91
0f6d 8002   CMP 0 0 szc
0f6e 01d3   JMP pc-2d ; f41
0f6f 0d22   JMS @pc+22 ; @f91
0f70 8001   CMP 0 0 skp
0f71 01d0   JMP pc-30 ; f41
0f72 0d20   JMS @pc+20 ; @f92
0f73 0005   JMP 5
0f74 0106   JMP pc+6 ; f7a
0f75 38c7   LDA 3 c7
0f76 bd00   SUB 1 3
0f77 3048   LDA 2 48
0f78 f41a   ADC# 3 2 szc
0f79 01c8   JMP pc-38 ; f41
0f7a a900   NEG 1 1
0f7b a800   CMP 1 1
0f7c 01c4   JMP pc-3c ; f40
0f7d 5911   STA 3 pc+11 ; f8e
0f7e aa0c   MOV# 1 1 szr
0f7f 01c2   JMP pc-3e ; f41
0f80 0d11   JMS @pc+11 ; @f91
0f81 8020   CMP 0 0
0f82 01bf   JMP pc-41 ; f41
0f83 01d0   JMP pc-30 ; f53
0f84 590a   STA 3 pc+a ; f8e
0f85 aa0c   MOV# 1 1 szr
0f86 01bb   JMP pc-45 ; f41
0f87 0d0b   JMS @pc+b ; @f92
0f88 800f   CMP# 0 0 sbn
0f89 01b8   JMP pc-48 ; f41
0f8a 0d07   JMS @pc+7 ; @f91
0f8b 8040   CMPL 0 0
0f8c 01b5   JMP pc-4b ; f41
0f8d 01c6   JMP pc-3a ; f53
0f8e 0e83   JMS @ac2-7d
0f8f 0003   JMP 3
0f90 0eff   JMS @ac2-1
0f91 0ec0   JMS @ac2-40
0f92 0edb   JMS @ac2-25
0f93 0f0c   JMS @ac3+c
0f94 59fa   STA 3 pc-6 ; f8e
0f95 aa0c   MOV# 1 1 szr
0f96 01ab   JMP pc-55 ; f41
0f97 38c7   LDA 3 c7
0f98 304c   LDA 2 4c
0f99 f41a   ADC# 3 2 szc
0f9a 01a7   JMP pc-59 ; f41
0f9b 0df7   JMS @pc-9 ; @f92
0f9c 8012   CMP 0 0 szc
0f9d 01a4   JMP pc-5c ; f41
0f9e 0df3   JMS @pc-d ; @f91
0f9f 8001   CMP 0 0 skp
0fa0 01a1   JMP pc-5f ; f41
0fa1 0df0   JMS @pc-10 ; @f91
0fa2 8004   CMP 0 0 szr
0fa3 019e   JMP pc-62 ; f41
0fa4 0ded   JMS @pc-13 ; @f91
0fa5 8001   CMP 0 0 skp
0fa6 019b   JMP pc-65 ; f41
0fa7 01d3   JMP pc-2d ; f7a

jms @40 13
0fa8 50fc   STA 2 fc
0fa9 40fd   STA 0 fd
0faa 310b   LDA 2 pc+b ; fb5
0fab 8500   SUB 0 0
0fac 0c3e   JMS @3e
0fad 3909   LDA 3 pc+9 ; fb6
0fae ef00   AND 3 1
0faf 8ec0   ADDS 0 1
0fb0 a250   MOVL 1 0
0fb1 8e00   ADD 0 1
0fb2 30fc   LDA 2 fc
0fb3 20fd   LDA 0 fd
0fb4 0441   JMP @41

0fb5 0600   JMP @ac2+0
0fb6 ff00   AND 3 3

jms @40 15
0fb7 28d3   LDA 1 d3
0fb8 aa0d   MOV# 1 1 snr
0fb9 0112   JMP pc+12 ; fcb
0fba 287a   LDA 1 7a
0fbb 3879   LDA 3 79
0fbc ed00   SUB 3 1
0fbd 30d4   LDA 2 d4
0fbe aac0   MOVS 1 1
0fbf a200   MOV 1 0
0fc0 3856   LDA 3 56
0fc1 e700   AND 3 0
0fc2 390b   LDA 3 pc+b ; fcd
0fc3 ef00   AND 3 1
0fc4 0c3f   JMS @3f
0fc5 3857   LDA 3 57
0fc6 be00   ADD 1 3
0fc7 58d2   STA 3 d2
0fc8 206c   LDA 0 6c
0fc9 a51a   SUB# 1 0 szc
0fca 8551   SUBL 0 0 skp
0fcb 8500   SUB 0 0
0fcc 0441   JMP @41

0fcd ff00   AND 3 3

0fce 3958   LDA 3 pc+58 ; 1026
0fcf 0102   JMP pc+2 ; fd1

jms @40 17
0fd0 3957   LDA 3 pc+57 ; 1027
0fd1 5161   STA 2 pc+61 ; 1032
0fd2 4961   STA 1 pc+61 ; 1033
0fd3 4161   STA 0 pc+61 ; 1034
0fd4 5954   STA 3 pc+54 ; 1028
0fd5 2960   LDA 1 pc+60 ; 1035
0fd6 3300   LDA 2 ac3+0
0fd7 203d   LDA 0 3d
0fd8 9600   ADD 0 2
0fd9 2200   LDA 0 ac2+0
0fda 820d   MOV# 0 0 snr
0fdb 0109   JMP pc+9 ; fe4
0fdc 20a7   LDA 0 a7
0fdd 820c   MOV# 0 0 szr
0fde 0104   JMP pc+4 ; fe2
0fdf 1a00   DSZ ac2+0
0fe0 1a00   DSZ ac2+0
0fe1 8208   MOV# 0 0; nop
0fe2 2a01   LDA 1 ac2+1
0fe3 0105   JMP pc+5 ; fe8
0fe4 d300   INC 2 2
0fe5 d300   INC 2 2
0fe6 ab04   INC 1 1 szr
0fe7 01f2   JMP pc-e ; fd9
0fe8 4941   STA 1 pc+41 ; 1029
0fe9 3300   LDA 2 ac3+0
0fea 203d   LDA 0 3d
0feb 9600   ADD 0 2
0fec 204d   LDA 0 4d
0fed 9600   ADD 0 2
0fee 2947   LDA 1 pc+47 ; 1035
0fef 2200   LDA 0 ac2+0
0ff0 820d   MOV# 0 0 snr
0ff1 0129   JMP pc+29 ; 101a
0ff2 800d   CMP# 0 0 snr
0ff3 0118   JMP pc+18 ; 100b
0ff4 2a01   LDA 1 ac2+1
0ff5 ae50   ADDL 1 1
0ff6 aa50   MOVL 1 1
0ff7 4b03   STA 1 ac3+3
0ff8 4302   STA 0 ac3+2
0ff9 8290   MOVR 0 0
0ffa 4301   STA 0 ac3+1
0ffb 8400   ADC 0 0
0ffc 4200   STA 0 ac2+0
0ffd 8500   SUB 0 0
0ffe 3301   LDA 2 ac3+1
0fff 0c3f   JMS @3f
1000 aa0a   MOV# 1 1 szc
1001 ad00   SUB 1 1
1002 3926   LDA 3 pc+26 ; 1028
1003 2302   LDA 0 ac3+2
1004 8292   MOVR 0 0 szc
1005 0104   JMP pc+4 ; 1009
1006 8500   SUB 0 0
1007 4303   STA 0 ac3+3
1008 0102   JMP pc+2 ; 100a
1009 a900   NEG 1 1
100a 4b02   STA 1 ac3+2
100b 2301   LDA 0 ac3+1
100c 820d   MOV# 0 0 snr
100d 010d   JMP pc+d ; 101a
100e 20a7   LDA 0 a7
100f 820d   MOV# 0 0 snr
1010 1b01   DSZ ac3+1
1011 8208   MOV# 0 0; nop
1012 2303   LDA 0 ac3+3
1013 2b02   LDA 1 ac3+2
1014 a600   ADD 1 0
1015 4303   STA 0 ac3+3
1016 8290   MOVR 0 0
1017 8290   MOVR 0 0
1018 8290   MOVR 0 0
1019 0106   JMP pc+6 ; 101f
101a 4200   STA 0 ac2+0
101b d300   INC 2 2
101c d300   INC 2 2
101d ab04   INC 1 1 szr
101e 01d1   JMP pc-2f ; fef
101f 290a   LDA 1 pc+a ; 1029
1020 8e00   ADD 0 1
1021 48fc   STA 1 fc
1022 2112   LDA 0 pc+12 ; 1034
1023 2910   LDA 1 pc+10 ; 1033
1024 310e   LDA 2 pc+e ; 1032
1025 0441   JMP @41
1026 102a   ISZ 2a
1027 102e   ISZ 2e
1028 102e   ISZ 2e
1029 0000   JMP 0
102a 0008   JMP 8
102b 0000   JMP 0
102c 0035   JMP 35
102d 03ba   JMP ac3-46
102e 001c   JMP 1c
102f 0000   JMP 0
1030 0000   JMP 0
1031 0000   JMP 0
1032 0318   JMP ac3+18
1033 0060   JMP 60
1034 0060   JMP 60
1035 fffb   AND#S 3 3 snc


jms @40 18
1036 b250   MOVL 1 2
1037 d6d0   ADDS 2 2
1038 3850   LDA 3 50
1039 ef00   AND 3 1
103a f700   AND 3 2
103b 3853   LDA 3 53
103c ee00   ADD 3 1
103d f600   ADD 3 2
103e 48fb   STA 1 fb
103f 2887   LDA 1 87
1040 0c44   JMS @44
1041 0047   
1042 ab00   INC 1 1
1043 3856   LDA 3 56
1044 ef00   AND 3 1
1045 4887   STA 1 87
1046 ca00   MOV 2 1
1047 0442   JMP @42

jms @40 1c
1048 3916   LDA 3 pc+16 ; 105e
1049 9d0c   SUB# 0 3 szr
104a 0103   JMP pc+3 ; 104d
104b 8500   SUB 0 0
104c 0441   JMP @41
104d 3858   LDA 3 58
104e e50d   SUB# 3 0 snr
104f 0106   JMP pc+6 ; 1055
1050 390f   LDA 3 pc+f ; 105f
1051 e50d   SUB# 3 0 snr
1052 0103   JMP pc+3 ; 1055
1053 8550   SUBL 0 0
1054 0441   JMP @41
1055 0c40   JMS @40
1056 001d   
1057 9ac0   MOVS 0 3
1058 fa4a   MOV#L 3 3 szc
1059 01fa   JMP pc-6 ; 1053
105a 384f   LDA 3 4f
105b 9d1a   SUB# 0 3 szc
105c 01ef   JMP pc-11 ; 104b
105d 01f6   JMP pc-a ; 1053
105e 0055   JMP 55
105f 005a   JMP 5a

jms @40 1e
1060 5121   STA 2 pc+21 ; 1081
1061 1074   ISZ 74
1062 d400   ADC 2 2
1063 0c40   JMS @40
1064 001d   
1065 9ac0   MOVS 0 3
1066 fa42   MOVL 3 3 szc
1067 fa42   MOVL 3 3 szc
1068 0116   JMP pc+16 ; 107e
1069 3850   LDA 3 50
106a e700   AND 3 0
106b 9200   MOV 0 2
106c 1074   ISZ 74
106d 0c40   JMS @40
106e 001d   
106f 82c0   MOVS 0 0
1070 9a42   MOVL 0 3 szc
1071 fa42   MOVL 3 3 szc
1072 010c   JMP pc+c ; 107e
1073 8290   MOVR 0 0
1074 8290   MOVR 0 0
1075 9601   ADD 0 2 skp
1076 0fff   JMS @ac3-1
1077 39ff   LDA 3 pc-1 ; 1076
1078 f700   AND 3 2
1079 dd0d   SUB# 2 3 snr
107a d400   ADC 2 2
107b c200   MOV 2 0
107c 3105   LDA 2 pc+5 ; 1081
107d 0441   JMP @41
107e 1874   DSZ 74
107f fa08   MOV# 3 3
1080 01fb   JMP pc-5 ; 107b
1081 0d0e   JMS @pc+e ; @108f

jms @40 20
1082 0c40   JMS @40
1083 0001   
1084 0c40   JMS @40
1085 0006   
1086 3079   LDA 2 79
1087 38fc   LDA 3 fc
1088 f600   ADD 3 2
1089 50c2   STA 2 c2
108a 50fc   STA 2 fc
108b 0c40   JMS @40
108c 0038   
108d 820c   MOV# 0 0 szr
108e 011b   JMP pc+1b ; 10a9
108f 0c40   JMS @40
1090 0002   
1091 38f8   LDA 3 f8
1092 fa0d   MOV# 3 3 snr
1093 010a   JMP pc+a ; 109d
1094 3867   LDA 3 67
1095 fa0c   MOV# 3 3 szr
1096 012e   JMP pc+2e ; 10c4
1097 0c40   JMS @40
1098 0006   
1099 0c40   JMS @40
109a 0048   
109b 1074   ISZ 74
109c 01e6   JMP pc-1a ; 1082
109d 0c40   JMS @40
109e 001d   
109f 396d   LDA 3 pc+6d ; 110c
10a0 e50c   SUB# 3 0 szr
10a1 0120   JMP pc+20 ; 10c1
10a2 38bf   LDA 3 bf
10a3 3079   LDA 2 79
10a4 f600   ADD 3 2
10a5 5079   STA 2 79
10a6 3056   LDA 2 56
10a7 50d1   STA 2 d1
10a8 016d   JMP pc+6d ; 1115
10a9 38d7   LDA 3 d7
10aa 5916   STA 3 pc+16 ; 10c0
10ab 3961   LDA 3 pc+61 ; 110c
10ac 30ba   LDA 2 ba
10ad f50c   SUB# 3 2 szr
10ae 010c   JMP pc+c ; 10ba
10af 2058   LDA 0 58
10b0 0c40   JMS @40
10b1 0003   
10b2 50bf   STA 2 bf
10b3 38c2   LDA 3 c2
10b4 f600   ADD 3 2
10b5 50fc   STA 2 fc
10b6 0c40   JMS @40
10b7 0038   
10b8 820d   MOV# 0 0 snr
10b9 01d6   JMP pc-2a ; 108f
10ba 096a   JMS pc+6a ; 1124
10bb 38c2   LDA 3 c2
10bc 5879   STA 3 79
10bd 8500   SUB 0 0
10be 40f8   STA 0 f8
10bf 01c3   JMP pc-3d ; 1082
10c0 0000   JMP 0
10c1 3867   LDA 3 67
10c2 fa0d   MOV# 3 3 snr
10c3 0152   JMP pc+52 ; 1115
10c4 0c40   JMS @40
10c5 003f   
10c6 820d   MOV# 0 0 snr
10c7 0146   JMP pc+46 ; 110d
10c8 20c0   LDA 0 c0
10c9 820c   MOV# 0 0 szr
10ca 010a   JMP pc+a ; 10d4
10cb 40d7   STA 0 d7
10cc 38c7   LDA 3 c7
10cd 304a   LDA 2 4a
10ce f41a   ADC# 3 2 szc
10cf 0103   JMP pc+3 ; 10d2
10d0 0c40   JMS @40
10d1 0036   
10d2 0c40   JMS @40
10d3 0011   
10d4 28c7   LDA 1 c7
10d5 3847   LDA 3 47
10d6 bd1b   SUB# 1 3 snc
10d7 ed01   SUB 3 1 skp
10d8 0135   JMP pc+35 ; 110d
10d9 a900   NEG 1 1
10da a805   CMP 1 1 snr
10db 0132   JMP pc+32 ; 110d
10dc 0c43   JMS @43
10dd 004a   
10de 30fb   LDA 2 fb
10df 3851   LDA 3 51
10e0 f70d   AND# 3 2 snr
10e1 01f8   JMP pc-8 ; 10d9
10e2 3850   LDA 3 50
10e3 f700   AND 3 2
10e4 50fb   STA 2 fb
10e5 0c44   JMS @44
10e6 004a   
10e7 38c1   LDA 3 c1
10e8 be00   ADD 1 3
10e9 58bc   STA 3 bc
10ea 0c40   JMS @40
10eb 0002   
10ec 0c40   JMS @40
10ed 001f   
10ee 0c40   JMS @40
10ef 0039   
10f0 820d   MOV# 0 0 snr
10f1 01e3   JMP pc-1d ; 10d4
10f2 38fc   LDA 3 fc
10f3 5879   STA 3 79
10f4 0930   JMS pc+30 ; 1124
10f5 0c40   JMS @40
10f6 001d   
10f7 9ac0   MOVS 0 3
10f8 fa4a   MOV#L 3 3 szc
10f9 0106   JMP pc+6 ; 10ff
10fa 0c40   JMS @40
10fb 0003   
10fc d20c   MOV# 2 2 szr
10fd 01a9   JMP pc-57 ; 10a6
10fe 0106   JMP pc+6 ; 1104
10ff 3907   LDA 3 pc+7 ; 1106
1100 e50c   SUB# 3 0 szr
1101 01a5   JMP pc-5b ; 10a6
1102 0c40   JMS @40
1103 0008   
1104 1074   ISZ 74
1105 01a1   JMP pc-5f ; 10a6
1106 00cc   JMP cc
1107 1082   ISZ 82
1108 1097   ISZ 97
1109 0c40   JMS @40
110a 0012   
110b 05fc   JMP @pc-4 ; @1107
110c 00c3   JMP c3
110d 38f8   LDA 3 f8
110e fa0d   MOV# 3 3 snr
110f 0104   JMP pc+4 ; 1113
1110 0c40   JMS @40
1111 0002   
1112 05f6   JMP @pc-a ; @1108
1113 0c40   JMS @40
1114 0002   
1115 0c40   JMS @40
1116 0015   
1117 820c   MOV# 0 0 szr
1118 01f1   JMP pc-f ; 1109
1119 3868   LDA 3 68
111a fa0d   MOV# 3 3 snr
111b 01ee   JMP pc-12 ; 1109
111c 21a4   LDA 0 pc-5c ; 10c0
111d 38d1   LDA 3 d1
111e fa0c   MOV# 3 3 szr
111f 8500   SUB 0 0
1120 40b8   STA 0 b8
1121 0c40   JMS @40
1122 003e   
1123 01e6   JMP pc-1a ; 1109
1124 590b   STA 3 pc+b ; 112f
1125 20ce   LDA 0 ce
1126 820d   MOV# 0 0 snr
1127 0103   JMP pc+3 ; 112a
1128 0c40   JMS @40
1129 0034   
112a 38b9   LDA 3 b9
112b 20d5   LDA 0 d5
112c e600   ADD 3 0
112d 40d5   STA 0 d5
112e 0501   JMP @pc+1 ; @112f
112f 10bb   ISZ bb

jms @40 23
1130 ad00   SUB 1 1
1131 4878   STA 1 78
1132 0c43   JMS @43
1133 0041   
1134 38fb   LDA 3 fb
1135 2856   LDA 1 56
1136 ed0d   SUB# 3 1 snr
1137 0103   JMP pc+3 ; 113a
1138 9d04   SUB 0 3 szr
1139 0104   JMP pc+4 ; 113d
113a 58f9   STA 3 f9
113b 2878   LDA 1 78
113c 0441   JMP @41
113d 2878   LDA 1 78
113e ab00   INC 1 1
113f 0c43   JMS @43
1140 0041   
1141 38fb   LDA 3 fb
1142 ee00   ADD 3 1
1143 01ee   JMP pc-12 ; 1131

jms @40 25
1144 38fc   LDA 3 fc
1145 fa05   MOV 3 3 snr
1146 0441   JMP @41
1147 fd00   SUB 3 3
1148 58fb   STA 3 fb
1149 3856   LDA 3 56
114a e700   AND 3 0
114b 0c44   JMS @44
114c 0007   
114d 8300   INC 0 0
114e 18fc   DSZ fc
114f 01fa   JMP pc-6 ; 1149
1150 0441   JMP @41

jms @40 26
1151 fd50   SUBL 3 3
1152 5890   STA 3 90
1153 3849   LDA 3 49
1154 2091   LDA 0 91
1155 e50c   SUB# 3 0 szr
1156 0111   JMP pc+11 ; 1167
1157 38d0   LDA 3 d0
1158 fa0c   MOV# 3 3 szr
1159 010e   JMP pc+e ; 1167
115a 5891   STA 3 91
115b 0c40   JMS @40
115c 0015   
115d 820c   MOV# 0 0 szr
115e 0109   JMP pc+9 ; 1167
115f 3868   LDA 3 68
1160 fa0d   MOV# 3 3 snr
1161 0106   JMP pc+6 ; 1167
1162 2047   LDA 0 47
1163 0c40   JMS @40
1164 0003   
1165 0c40   JMS @40
1166 003e   
1167 0c5c   JMS @5c
1168 0075   
1169 0080   
116a 0005   
116b 0c5c   JMS @5c
116c 04e5   
116d 0060   
116e 0020   
116f 3d59   LDA 3 @pc+59 ; @11c8
1170 58a4   STA 3 a4
1171 8500   SUB 0 0
1172 40d7   STA 0 d7
1173 307a   LDA 2 7a
1174 2084   LDA 0 84
1175 9500   SUB 0 2
1176 50fc   STA 2 fc
1177 2091   LDA 0 91
1178 820d   MOV# 0 0 snr
1179 0125   JMP pc+25 ; 119e
117a 28d3   LDA 1 d3
117b aa0d   MOV# 1 1 snr
117c 0115   JMP pc+15 ; 1191
117d 20a5   LDA 0 a5
117e 38c3   LDA 3 c3
117f e604   ADD 3 0 szr
1180 010e   JMP pc+e ; 118e
1181 2065   LDA 0 65
1182 0c40   JMS @40
1183 0022   
1184 28d3   LDA 1 d3
1185 8500   SUB 0 0
1186 0c3e   JMS @3e
1187 20d4   LDA 0 d4
1188 8d00   SUB 0 1
1189 30fc   LDA 2 fc
118a cc1a   ADC# 2 1 szc
118b 011a   JMP pc+1a ; 11a5
118c b500   SUB 1 2
118d 40d7   STA 0 d7
118e 20d0   LDA 0 d0
118f 820c   MOV# 0 0 szr
1190 0113   JMP pc+13 ; 11a3
1191 2091   LDA 0 91
1192 8100   NEG 0 0
1193 8305   INC 0 0 snr
1194 011b   JMP pc+1b ; 11af
1195 8304   INC 0 0 szr
1196 d290   MOVR 2 2
1197 2879   LDA 1 79
1198 ce00   ADD 2 1
1199 4879   STA 1 79
119a 28b2   LDA 1 b2
119b ce00   ADD 2 1
119c 48b2   STA 1 b2
119d 0112   JMP pc+12 ; 11af
119e 20a5   LDA 0 a5
119f 820d   MOV# 0 0 snr
11a0 0107   JMP pc+7 ; 11a7
11a1 4091   STA 0 91
11a2 01ef   JMP pc-11 ; 1191
11a3 50d2   STA 2 d2
11a4 010b   JMP pc+b ; 11af
11a5 8500   SUB 0 0
11a6 4091   STA 0 91
11a7 20c3   LDA 0 c3
11a8 820c   MOV# 0 0 szr
11a9 0106   JMP pc+6 ; 11af
11aa 28fc   LDA 1 fc
11ab 30d3   LDA 2 d3
11ac 0c3f   JMS @3f
11ad 48d2   STA 1 d2
11ae 40d3   STA 0 d3
11af 38c6   LDA 3 c6
11b0 2079   LDA 0 79
11b1 fa0d   MOV# 3 3 snr
11b2 40b2   STA 0 b2
11b3 0c40   JMS @40
11b4 002e   
11b5 20f8   LDA 0 f8
11b6 820c   MOV# 0 0 szr
11b7 0104   JMP pc+4 ; 11bb
11b8 208f   LDA 0 8f
11b9 800d   CMP# 0 0 snr
11ba 0103   JMP pc+3 ; 11bd
11bb 0c40   JMS @40
11bc 0031   
11bd 3876   LDA 3 76
11be 3109   LDA 2 pc+9 ; 11c7
11bf 2216   LDA 0 ac2+16
11c0 2856   LDA 1 56
11c1 9d00   SUB 0 3
11c2 bf00   AND 1 3
11c3 58fc   STA 3 fc
11c4 0c40   JMS @40
11c5 0025   
11c6 0441   JMP @41
11c7 04e5   JMP @e5
11c8 0d36   JMS @pc+36 ; @11fe

jms @40 28
11c9 9205   MOV 0 2 snr
11ca 0441   JMP @41
11cb aa0c   MOV# 1 1 szr
11cc 0105   JMP pc+5 ; 11d1
11cd 2122   LDA 0 pc+22 ; 11ef
11ce 0c40   JMS @40
11cf 002a   
11d0 d901   NEG 2 3 skp
11d1 da00   MOV 2 3
11d2 8400   ADC 0 0
11d3 40af   STA 0 af
11d4 20b0   LDA 0 b0
11d5 e600   ADD 3 0
11d6 40b0   STA 0 b0
11d7 20b1   LDA 0 b1
11d8 e600   ADD 3 0
11d9 40b1   STA 0 b1
11da 2116   LDA 0 pc+16 ; 11f0
11db c51a   SUB# 2 0 szc
11dc 0106   JMP pc+6 ; 11e2
11dd 9500   SUB 0 2
11de 2113   LDA 0 pc+13 ; 11f1
11df 0c40   JMS @40
11e0 002a   
11e1 01f9   JMP pc-7 ; 11da
11e2 d000   CMP 2 2
11e3 9700   AND 0 2
11e4 210d   LDA 0 pc+d ; 11f1
11e5 c600   ADD 2 0
11e6 0c40   JMS @40
11e7 002a   
11e8 aa0c   MOV# 1 1 szr
11e9 0441   JMP @41
11ea 2104   LDA 0 pc+4 ; 11ee
11eb 0c40   JMS @40
11ec 002a   
11ed 0441   JMP @41

11ee 004a   JMP 4a
11ef 004c   JMP 4c
11f0 001f   JMP 1f
11f1 0060   JMP 60

jms @40 29
11f2 3914   LDA 3 pc+14 ; 1206
11f3 28b2   LDA 1 b2
11f4 ed22   SUB 3 1 szc
11f5 0106   JMP pc+6 ; 11fb
11f6 2053   LDA 0 53
11f7 48b2   STA 1 b2
11f8 0c40   JMS @40
11f9 002a   
11fa 01f8   JMP pc-8 ; 11f2
11fb 28b2   LDA 1 b2
11fc 3048   LDA 2 48
11fd 8500   SUB 0 0
11fe 0c3f   JMS @3f
11ff 40b2   STA 0 b2
1200 a205   MOV 1 0 snr
1201 0441   JMP @41
1202 8000   CMP 0 0
1203 0c40   JMS @40
1204 002a   
1205 0441   JMP @41
1206 017d   JMP pc+7d ; 1283

jms @40 2c
1207 8550   SUBL 0 0
1208 8d00   SUB 0 1
1209 9512   SUB 0 2 szc
120a 0904   JMS pc+4 ; 120e
120b b200   MOV 1 2
120c 0902   JMS pc+2 ; 120e
120d 0441   JMP @41
120e 590c   STA 3 pc+c ; 121a
120f 210c   LDA 0 pc+c ; 121b
1210 d293   MOVR 2 2 snc
1211 210b   LDA 0 pc+b ; 121c
1212 0c40   JMS @40
1213 002a   
1214 2109   LDA 0 pc+9 ; 121d
1215 d293   MOVR 2 2 snc
1216 2108   LDA 0 pc+8 ; 121e
1217 0c40   JMS @40
1218 002a   
1219 0501   JMP @pc+1 ; @121a
121a 120d   ISZ ac2+d
121b 0042   JMP 42
121c 0041   JMP 41
121d 0043   JMP 43
121e 0044   JMP 44

jms @40 2d
121f 392d   LDA 3 pc+2d ; 124c
1220 de00   ADD 2 3
1221 2300   LDA 0 ac3+0
1222 3856   LDA 3 56
1223 e705   AND 3 0 snr
1224 0103   JMP pc+3 ; 1227
1225 0c40   JMS @40
1226 002a   
1227 3925   LDA 3 pc+25 ; 124c
1228 be00   ADD 1 3
1229 2300   LDA 0 ac3+0
122a 3856   LDA 3 56
122b e705   AND 3 0 snr
122c 0103   JMP pc+3 ; 122f
122d 0c40   JMS @40
122e 002a   
122f 391d   LDA 3 pc+1d ; 124c
1230 f600   ADD 3 2
1231 3200   LDA 2 ac2+0
1232 d2c0   MOVS 2 2
1233 be00   ADD 1 3
1234 2b00   LDA 1 ac3+0
1235 aac0   MOVS 1 1
1236 3856   LDA 3 56
1237 ef04   AND 3 1 szr
1238 010b   JMP pc+b ; 1243
1239 f705   AND 3 2 snr
123a 0441   JMP @41
123b 210e   LDA 0 pc+e ; 1249
123c 0c40   JMS @40
123d 002a   
123e 210d   LDA 0 pc+d ; 124b
123f 0c40   JMS @40
1240 002a   
1241 2109   LDA 0 pc+9 ; 124a
1242 0104   JMP pc+4 ; 1246
1243 f704   AND 3 2 szr
1244 0441   JMP @41
1245 2106   LDA 0 pc+6 ; 124b
1246 0c40   JMS @40
1247 002a   
1248 0441   JMP @41
1249 0048   JMP 48
124a 0047   JMP 47
124b 00c8   JMP c8
124c 124d   ISZ ac2+4d
124d 0000   JMP 0
124e 0058   JMP 58
124f 0050   JMP 50
1250 0051   JMP 51
1251 0057   JMP 57
1252 0052   JMP 52
1253 0053   JMP 53
1254 0054   JMP 54
1255 0055   JMP 55
1256 0259   JMP ac2+59
1257 0056   JMP 56
1258 025a   JMP ac2+5a
1259 025b   JMP ac2+5b
125a 025c   JMP ac2+5c
125b 025d   JMP ac2+5d
125c 025e   JMP ac2+5e

jms @40 2e
125d 0c40   JMS @40
125e 0004   
125f fc00   ADC 3 3
1260 58c6   STA 3 c6
1261 0c40   JMS @40
1262 0033   
1263 0c40   JMS @40
1264 0029   
1265 8500   SUB 0 0
1266 40ce   STA 0 ce
1267 40cf   STA 0 cf
1268 40d0   STA 0 d0
1269 0d78   JMS @pc+78 ; @12e1
126a 0179   JMP pc+79 ; 12e3
126b 9ac0   MOVS 0 3
126c fa4a   MOV#L 3 3 szc
126d 0110   JMP pc+10 ; 127d
126e 0c40   JMS @40
126f 0003   
1270 0c40   JMS @40
1271 000b   
1272 38cc   LDA 3 cc
1273 fa0c   MOV# 3 3 szr
1274 0103   JMP pc+3 ; 1277
1275 0c40   JMS @40
1276 002a   
1277 056b   JMP @pc+6b ; @12e2
1278 0c40   JMS @40
1279 0030   
127a 1074   ISZ 74
127b 8208   MOV# 0 0; nop
127c 01e7   JMP pc-19 ; 1263
127d 0c40   JMS @40
127e 0008   
127f 0c40   JMS @40
1280 0033   
1281 38d0   LDA 3 d0
1282 fa0c   MOV# 3 3 szr
1283 0123   JMP pc+23 ; 12a6
1284 38ce   LDA 3 ce
1285 fa0c   MOV# 3 3 szr
1286 0107   JMP pc+7 ; 128d
1287 38cf   LDA 3 cf
1288 fa0c   MOV# 3 3 szr
1289 01ef   JMP pc-11 ; 1278
128a 1074   ISZ 74
128b 8208   MOV# 0 0; nop
128c 01d9   JMP pc-27 ; 1265
128d 3891   LDA 3 91
128e fa0c   MOV# 3 3 szr
128f 01e9   JMP pc-17 ; 1278
1290 38c3   LDA 3 c3
1291 fa0c   MOV# 3 3 szr
1292 010b   JMP pc+b ; 129d
1293 0c40   JMS @40
1294 0030   
1295 30d2   LDA 2 d2
1296 28d3   LDA 1 d3
1297 aa0d   MOV# 1 1 snr
1298 01e0   JMP pc-20 ; 1278
1299 d300   INC 2 2
129a 18d3   DSZ d3
129b 8208   MOV# 0 0
129c 01dc   JMP pc-24 ; 1278
129d 28d2   LDA 1 d2
129e 8500   SUB 0 0
129f 0c3e   JMS @3e
12a0 b2c0   MOVS 1 2
12a1 2856   LDA 1 56
12a2 b700   AND 1 2
12a3 82c0   MOVS 0 0
12a4 9600   ADD 0 2
12a5 01d3   JMP pc-2d ; 1278
12a6 3891   LDA 3 91
12a7 fa0d   MOV# 3 3 snr
12a8 01e5   JMP pc-1b ; 128d
12a9 28d2   LDA 1 d2
12aa b600   ADD 1 2
12ab 8500   SUB 0 0
12ac 40d2   STA 0 d2
12ad 20cd   LDA 0 cd
12ae 820d   MOV# 0 0 snr
12af 01c9   JMP pc-37 ; 1278
12b0 50d2   STA 2 d2
12b1 0c40   JMS @40
12b2 0003   
12b3 2891   LDA 1 91
12b4 3848   LDA 3 48
12b5 bd0c   SUB# 1 3 szr
12b6 010e   JMP pc+e ; 12c4
12b7 2879   LDA 1 79
12b8 8500   SUB 0 0
12b9 0c3f   JMS @3f
12ba 50fc   STA 2 fc
12bb 9500   SUB 0 2
12bc 28d2   LDA 1 d2
12bd cd00   SUB 2 1
12be aa4a   MOV#L 1 1 szc
12bf 0104   JMP pc+4 ; 12c3
12c0 0c40   JMS @40
12c1 0030   
12c2 48d2   STA 1 d2
12c3 30fc   LDA 2 fc
12c4 28d2   LDA 1 d2
12c5 8500   SUB 0 0
12c6 40d2   STA 0 d2
12c7 0c3f   JMS @3f
12c8 ab00   INC 1 1
12c9 48fc   STA 1 fc
12ca d500   SUB 2 2
12cb 1891   DSZ 91
12cc 0103   JMP pc+3 ; 12cf
12cd 9200   MOV 0 2
12ce 8500   SUB 0 0
12cf 40fd   STA 0 fd
12d0 1091   ISZ 91
12d1 0108   JMP pc+8 ; 12d9
12d2 20cd   LDA 0 cd
12d3 0c40   JMS @40
12d4 0003   
12d5 0c40   JMS @40
12d6 000b   
12d7 0c40   JMS @40
12d8 002a   
12d9 0c40   JMS @40
12da 0030   
12db 0c40   JMS @40
12dc 0029   
12dd 18fc   DSZ fc
12de 01f4   JMP pc-c ; 12d2
12df 30fd   LDA 2 fd
12e0 0198   JMP pc-68 ; 1278
12e1 12f2   ISZ ac2-e
12e2 1307   ISZ ac3+7
12e3 38d1   LDA 3 d1
12e4 fa0d   MOV# 3 3 snr
12e5 0164   JMP pc+64 ; 1349
12e6 8500   SUB 0 0
12e7 40d6   STA 0 d6
12e8 2058   LDA 0 58
12e9 0c40   JMS @40
12ea 0003   
12eb 0c40   JMS @40
12ec 000b   
12ed 0c40   JMS @40
12ee 002a   
12ef 0c40   JMS @40
12f0 0030   
12f1 0158   JMP pc+58 ; 1349
12f2 f200   MOV 3 2
12f3 0c40   JMS @40
12f4 001d   
12f5 da00   MOV 2 3
12f6 3076   LDA 2 76
12f7 2881   LDA 1 81
12f8 cd0c   SUB# 2 1 szr
12f9 0301   JMP ac3+1
12fa 3077   LDA 2 77
12fb 2882   LDA 1 82
12fc cd0c   SUB# 2 1 szr
12fd 0301   JMP ac3+1
12fe 3078   LDA 2 78
12ff 2883   LDA 1 83
1300 cd0c   SUB# 2 1 szr
1301 0301   JMP ac3+1
1302 0300   JMP ac3+0

1303 1874   DSZ 74
1304 8208   MOV# 0 0
1305 30fd   LDA 2 fd
1306 01a9   JMP pc-57 ; 12af
1307 50fd   STA 2 fd
1308 1074   ISZ 74
1309 09e9   JMS pc-17 ; 12f2
130a 01f9   JMP pc-7 ; 1303
130b 9ac0   MOVS 0 3
130c fa4a   MOV#L 3 3 szc
130d 0106   JMP pc+6 ; 1313
130e 0c40   JMS @40
130f 0003   
1310 d20c   MOV# 2 2 szr
1311 01f2   JMP pc-e ; 1303
1312 0127   JMP pc+27 ; 1339
1313 3947   LDA 3 pc+47 ; 135a
1314 e50c   SUB# 3 0 szr
1315 01ee   JMP pc-12 ; 1303
1316 3543   LDA 2 @pc+43 ; @1359
1317 d290   MOVR 2 2
1318 0c40   JMS @40
1319 0030   
131a 0c40   JMS @40
131b 0029   
131c 20b5   LDA 0 b5
131d 413e   STA 0 pc+3e ; 135b
131e 2049   LDA 0 49
131f 0c40   JMS @40
1320 002b   
1321 0c40   JMS @40
1322 0033   
1323 1074   ISZ 74
1324 09ce   JMS pc-32 ; 12f2
1325 01de   JMP pc-22 ; 1303
1326 0c40   JMS @40
1327 0003   
1328 d20c   MOV# 2 2 szr
1329 011d   JMP pc+1d ; 1346
132a 0c40   JMS @40
132b 000b   
132c 0c40   JMS @40
132d 002a   
132e 212d   LDA 0 pc+2d ; 135b
132f 0c40   JMS @40
1330 002b   
1331 0c40   JMS @40
1332 0033   
1333 38fd   LDA 3 fd
1334 3525   LDA 2 @pc+25 ; @1359
1335 dd00   SUB 2 3
1336 d290   MOVR 2 2
1337 f600   ADD 3 2
1338 01ce   JMP pc-32 ; 1306
1339 40fc   STA 0 fc
133a 351f   LDA 2 @pc+1f ; @1359
133b d290   MOVR 2 2
133c 0c40   JMS @40
133d 0030   
133e 0c40   JMS @40
133f 0029   
1340 20fc   LDA 0 fc
1341 0c40   JMS @40
1342 000b   
1343 0c40   JMS @40
1344 002a   
1345 01ee   JMP pc-12 ; 1333
1346 1874   DSZ 74
1347 8208   MOV# 0 0
1348 01e6   JMP pc-1a ; 132e
1349 2091   LDA 0 91
134a 820c   MOV# 0 0 szr
134b 010b   JMP pc+b ; 1356
134c 30b8   LDA 2 b8
134d 28d6   LDA 1 d6
134e 0c3e   JMS @3e
134f 307a   LDA 2 7a
1350 b600   ADD 1 2
1351 2079   LDA 0 79
1352 9505   SUB 0 2 snr
1353 0103   JMP pc+3 ; 1356
1354 0c40   JMS @40
1355 0030   
1356 0c40   JMS @40
1357 0029   
1358 0441   JMP @41
1359 0743   JMP @ac3+43
135a 00cc   JMP cc
135b 0001   JMP 1

jms @40 30
135c 3879   LDA 3 79
135d de00   ADD 2 3
135e 5879   STA 3 79
135f 38b2   LDA 3 b2
1360 de00   ADD 2 3
1361 58b2   STA 3 b2
1362 0441   JMP @41

jms @40 31
1363 d500   SUB 2 2
1364 28b5   LDA 1 b5
1365 0c40   JMS @40
1366 002c   
1367 ad00   SUB 1 1
1368 30b6   LDA 2 b6
1369 0c40   JMS @40
136a 002d   
136b 216a   LDA 0 pc+6a ; 13d5
136c 38aa   LDA 3 aa
136d fa0c   MOV# 3 3 szr
136e 2168   LDA 0 pc+68 ; 13d6
136f 0c40   JMS @40
1370 002a   
1371 38c4   LDA 3 c4
1372 58a9   STA 3 a9
1373 38a6   LDA 3 a6
1374 58a7   STA 3 a7
1375 8500   SUB 0 0
1376 40b5   STA 0 b5
1377 40b6   STA 0 b6
1378 40c6   STA 0 c6
1379 20b7   LDA 0 b7
137a 820d   MOV# 0 0 snr
137b 0144   JMP pc+44 ; 13bf
137c 8500   SUB 0 0
137d d500   SUB 2 2
137e 0c40   JMS @40
137f 0024   
1380 aa0c   MOV# 1 1 szr
1381 0105   JMP pc+5 ; 1386
1382 8300   INC 0 0
1383 38b7   LDA 3 b7
1384 e50c   SUB# 3 0 szr
1385 01f9   JMP pc-7 ; 137e
1386 da50   MOVL 2 3
1387 f600   ADD 3 2
1388 38ab   LDA 3 ab
1389 fa0d   MOV# 3 3 snr
138a 0106   JMP pc+6 ; 1390
138b 38af   LDA 3 af
138c fa0d   MOV# 3 3 snr
138d 011b   JMP pc+1b ; 13a8
138e 38ac   LDA 3 ac
138f 5873   STA 3 73
1390 2073   LDA 0 73
1391 5073   STA 2 73
1392 3879   LDA 3 79
1393 58ac   STA 3 ac
1394 0943   JMS pc+43 ; 13d7
1395 8500   SUB 0 0
1396 40ab   STA 0 ab
1397 213d   LDA 0 pc+3d ; 13d4
1398 0c40   JMS @40
1399 002a   
139a ad00   SUB 1 1
139b 0c43   JMS @43
139c 0046   
139d 20fb   LDA 0 fb
139e 3056   LDA 2 56
139f c50d   SUB# 2 0 snr
13a0 0103   JMP pc+3 ; 13a3
13a1 0c40   JMS @40
13a2 0005   
13a3 ab00   INC 1 1
13a4 18b7   DSZ b7
13a5 01f6   JMP pc-a ; 139b
13a6 8400   ADC 0 0
13a7 0117   JMP pc+17 ; 13be
13a8 5073   STA 2 73
13a9 3079   LDA 2 79
13aa 20ac   LDA 0 ac
13ab 50ac   STA 2 ac
13ac 092b   JMS pc+2b ; 13d7
13ad 2126   LDA 0 pc+26 ; 13d3
13ae 0c40   JMS @40
13af 002a   
13b0 28b7   LDA 1 b7
13b1 a900   NEG 1 1
13b2 a800   CMP 1 1
13b3 0c43   JMS @43
13b4 0046   
13b5 20fb   LDA 0 fb
13b6 3056   LDA 2 56
13b7 c50d   SUB# 2 0 snr
13b8 0103   JMP pc+3 ; 13bb
13b9 0c40   JMS @40
13ba 0005   
13bb 18b7   DSZ b7
13bc 01f5   JMP pc-b ; 13b1
13bd 8500   SUB 0 0
13be 40ab   STA 0 ab
13bf 8500   SUB 0 0
13c0 40af   STA 0 af
13c1 207c   LDA 0 7c
13c2 820d   MOV# 0 0 snr
13c3 0441   JMP @41
13c4 38a6   LDA 3 a6
13c5 fa0c   MOV# 3 3 szr
13c6 0441   JMP @41
13c7 187c   DSZ 7c
13c8 0441   JMP @41
13c9 3878   LDA 3 78
13ca f80d   CMP# 3 3 snr
13cb 0441   JMP @41
13cc fc00   ADC 3 3
13cd 5875   STA 3 75
13ce 3877   LDA 3 77
13cf 5874   STA 3 74
13d0 1876   DSZ 76
13d1 8208   MOV# 0 0
13d2 0441   JMP @41
13d3 0048   JMP 48
13d4 0047   JMP 47
13d5 0045   JMP 45
13d6 0046   JMP 46
13d7 5914   STA 3 pc+14 ; 13eb
13d8 39fb   LDA 3 pc-5 ; 13d3
13d9 950d   SUB# 0 2 snr
13da 0511   JMP @pc+11 ; @13eb
13db 951a   SUB# 0 2 szc
13dc 39f8   LDA 3 pc-8 ; 13d4
13dd 590d   STA 3 pc+d ; 13ea
13de 9522   SUB 0 2 szc
13df d100   NEG 2 2
13e0 50b2   STA 2 b2
13e1 2109   LDA 0 pc+9 ; 13ea
13e2 0c40   JMS @40
13e3 002a   
13e4 0c40   JMS @40
13e5 0029   
13e6 2104   LDA 0 pc+4 ; 13ea
13e7 0c40   JMS @40
13e8 002a   
13e9 0502   JMP @pc+2 ; @13eb
13ea 0048   JMP 48
13eb 13ad   ISZ ac3-53

jms @40 33
13ec 5111   STA 2 pc+11 ; 13fd
13ed 30b5   LDA 2 b5
13ee 2861   LDA 1 61
13ef 48b5   STA 1 b5
13f0 b50d   SUB# 1 2 snr
13f1 0103   JMP pc+3 ; 13f4
13f2 0c40   JMS @40
13f3 002c   
13f4 30b6   LDA 2 b6
13f5 286b   LDA 1 6b
13f6 48b6   STA 1 b6
13f7 b50d   SUB# 1 2 snr
13f8 0103   JMP pc+3 ; 13fb
13f9 0c40   JMS @40
13fa 002d   
13fb 3102   LDA 2 pc+2 ; 13fd
13fc 0441   JMP @41
13fd 0039   JMP 39

jms @40 34
13fe 10d3   ISZ d3
13ff 20bd   LDA 0 bd
1400 38d4   LDA 3 d4
1401 9e00   ADD 0 3
1402 58d4   STA 3 d4
1403 fd00   SUB 3 3
1404 58ce   STA 3 ce
1405 0441   JMP @41

jms @40 35
1406 30a8   LDA 2 a8
1407 d00d   CMP# 2 2 snr
1408 011a   JMP pc+1a ; 1422
1409 da50   MOVL 2 3
140a f600   ADD 3 2
140b 3879   LDA 3 79
140c 287a   LDA 1 7a
140d ed00   SUB 3 1
140e 8500   SUB 0 0
140f 0c3f   JMS @3f
1410 ba50   MOVL 1 3
1411 ee00   ADD 3 1
1412 4928   STA 1 pc+28 ; 143a
1413 ad00   SUB 1 1
1414 3859   LDA 3 59
1415 5924   STA 3 pc+24 ; 1439
1416 3523   LDA 2 @pc+23 ; @1439
1417 d00d   CMP# 2 2 snr
1418 010a   JMP pc+a ; 1422
1419 4d20   STA 1 @pc+20 ; @1439
141a 8500   SUB 0 0
141b 291f   LDA 1 pc+1f ; 143a
141c 0c3e   JMS @3e
141d 351c   LDA 2 @pc+1c ; @1439
141e ce00   ADD 2 1
141f 4d1a   STA 1 @pc+1a ; @1439
1420 1119   ISZ pc+19 ; 1439
1421 01f5   JMP pc-b ; 1416
1422 3859   LDA 3 59
1423 5916   STA 3 pc+16 ; 1439
1424 3515   LDA 2 @pc+15 ; @1439
1425 d24a   MOV#L 2 2 szc
1426 0106   JMP pc+6 ; 142c
1427 3879   LDA 3 79
1428 f600   ADD 3 2
1429 5510   STA 2 @pc+10 ; @1439
142a 110f   ISZ pc+f ; 1439
142b 01f9   JMP pc-7 ; 1424
142c ac00   ADC 1 1
142d 4d0c   STA 1 @pc+c ; @1439
142e 48ae   STA 1 ae
142f 4c5a   STA 1 @5a
1430 1909   DSZ pc+9 ; 1439
1431 387a   LDA 3 7a
1432 5d07   STA 3 @pc+7 ; @1439
1433 1906   DSZ pc+6 ; 1439
1434 3505   LDA 2 @pc+5 ; @1439
1435 dc1a   ADC# 2 3 szc
1436 0441   JMP @41
1437 1102   ISZ pc+2 ; 1439
1438 01f4   JMP pc-c ; 142c
1439 0364   JMP ac3+64
143a 07ec   JMP @ac3-14

jms @40 36
143b d500   SUB 2 2
143c 5135   STA 2 pc+35 ; 1471
143d 3136   LDA 2 pc+36 ; 1473
143e 5104   STA 2 pc+4 ; 1442
143f ad00   SUB 1 1
1440 8500   SUB 0 0
1441 0c43   JMS @43
1442 0043   
1443 30fb   LDA 2 fb
1444 512e   STA 2 pc+2e ; 1472
1445 3852   LDA 3 52
1446 dd1b   SUB# 2 3 snc
1447 011b   JMP pc+1b ; 1462
1448 820d   MOV# 0 0 snr
1449 0116   JMP pc+16 ; 145f
144a 3850   LDA 3 50
144b f700   AND 3 2
144c 0c43   JMS @43
144d 0009   
144e 38fb   LDA 3 fb
144f d20c   MOV# 2 2 szr
1450 0104   JMP pc+4 ; 1454
1451 3121   LDA 2 pc+21 ; 1472
1452 f600   ADD 3 2
1453 0106   JMP pc+6 ; 1459
1454 dd0c   SUB# 2 3 szr
1455 010a   JMP pc+a ; 145f
1456 311c   LDA 2 pc+1c ; 1472
1457 3852   LDA 3 52
1458 f700   AND 3 2
1459 50fb   STA 2 fb
145a 0c44   JMS @44
145b 000a   
145c 8300   INC 0 0
145d 38c7   LDA 3 c7
145e e41a   ADC# 3 0 szc
145f 8500   SUB 0 0
1460 ab00   INC 1 1
1461 01e0   JMP pc-20 ; 1441
1462 0c40   JMS @40
1463 000d   
1464 820c   MOV# 0 0 szr
1465 0107   JMP pc+7 ; 146c
1466 3856   LDA 3 56
1467 dd0c   SUB# 2 3 szr
1468 01e2   JMP pc-1e ; 144a
1469 3908   LDA 3 pc+8 ; 1471
146a fa0d   MOV# 3 3 snr
146b 0103   JMP pc+3 ; 146e
146c 40d7   STA 0 d7
146d 0441   JMP @41
146e 1103   ISZ pc+3 ; 1471
146f 3105   LDA 2 pc+5 ; 1474
1470 01ce   JMP pc-32 ; 143e
1471 0001   JMP 1
1472 00ff   JMP ff
1473 0044   JMP 44
1474 0043   JMP 43

jms @40 38
1475 20fc   LDA 0 fc
1476 387a   LDA 3 7a
1477 9d1b   SUB# 0 3 snc
1478 8501   SUB 0 0 skp
1479 8550   SUBL 0 0
147a 0441   JMP @41

jms @40 39
147b 28fc   LDA 1 fc
147c 3879   LDA 3 79
147d ee00   ADD 3 1
147e 2058   LDA 0 58
147f 0c40   JMS @40
1480 0003   
1481 ce00   ADD 2 1
1482 48fc   STA 1 fc
1483 0c40   JMS @40
1484 0038   
1485 0441   JMP @41

jms @40 3e
1486 20d5   LDA 0 d5
1487 38b8   LDA 3 b8
1488 e500   SUB 3 0
1489 4117   STA 0 pc+17 ; 14a0
148a 8500   SUB 0 0
148b 40d6   STA 0 d6
148c 2079   LDA 0 79
148d 3913   LDA 3 pc+13 ; 14a0
148e e600   ADD 3 0
148f 40fc   STA 0 fc
1490 0c40   JMS @40
1491 0038   
1492 820d   MOV# 0 0 snr
1493 0441   JMP @41
1494 20d6   LDA 0 d6
1495 3870   LDA 3 70
1496 9d1b   SUB# 0 3 snc
1497 0441   JMP @41
1498 20fc   LDA 0 fc
1499 4079   STA 0 79
149a 10d6   ISZ d6
149b 0c40   JMS @40
149c 0015   
149d 820d   MOV# 0 0 snr
149e 01ee   JMP pc-12 ; 148c
149f 0441   JMP @41
14a0 0000   

jms @40 3f
14a1 ad00   SUB 1 1
14a2 48c7   STA 1 c7
14a3 48c0   STA 1 c0
14a4 48c1   STA 1 c1
14a5 4954   STA 1 pc+54 ; 14f9
14a6 0c40   JMS @40
14a7 001d   
14a8 9ac0   MOVS 0 3
14a9 fa4a   MOV#L 3 3 szc
14aa 0118   JMP pc+18 ; 14c2
14ab 0c40   JMS @40
14ac 0003   
14ad d20d   MOV# 2 2 snr
14ae 0112   JMP pc+12 ; 14c0
14af 8290   MOVR 0 0
14b0 40fb   STA 0 fb
14b1 0c44   JMS @44
14b2 0049   
14b3 820d   MOV# 0 0 snr
14b4 0136   JMP pc+36 ; 14ea
14b5 384e   LDA 3 4e
14b6 9c1b   ADC# 0 3 snc
14b7 0137   JMP pc+37 ; 14ee
14b8 38c0   LDA 3 c0
14b9 fa0c   MOV# 3 3 szr
14ba 0130   JMP pc+30 ; 14ea
14bb ab00   INC 1 1
14bc 393f   LDA 3 pc+3f ; 14fb
14bd bd0d   SUB# 1 3 snr
14be 0110   JMP pc+10 ; 14ce
14bf 113a   ISZ pc+3a ; 14f9
14c0 1074   ISZ 74
14c1 01e5   JMP pc-1b ; 14a6
14c2 4138   STA 0 pc+38 ; 14fa
14c3 0c40   JMS @40
14c4 000a   
14c5 820d   MOV# 0 0 snr
14c6 01f9   JMP pc-7 ; 14bf
14c7 2133   LDA 0 pc+33 ; 14fa
14c8 3934   LDA 3 pc+34 ; 14fc
14c9 e505   SUB 3 0 snr
14ca 0441   JMP @41
14cb 392e   LDA 3 pc+2e ; 14f9
14cc fa0d   MOV# 3 3 snr
14cd 01f2   JMP pc-e ; 14bf
14ce 48c7   STA 1 c7
14cf a205   MOV 1 0 snr
14d0 0441   JMP @41
14d1 8100   NEG 0 0
14d2 8000   CMP 0 0
14d3 38c0   LDA 3 c0
14d4 fa0d   MOV# 3 3 snr
14d5 0441   JMP @41
14d6 384b   LDA 3 4b
14d7 9c1b   ADC# 0 3 snc
14d8 0103   JMP pc+3 ; 14db
14d9 8500   SUB 0 0
14da 0441   JMP @41
14db 0c43   JMS @43
14dc 0009   
14dd 0c44   JMS @44
14de 000a   
14df 8b00   INC 0 1
14e0 391d   LDA 3 pc+1d ; 14fd
14e1 20fb   LDA 0 fb
14e2 9d0d   SUB# 0 3 snr
14e3 0d15   JMS @pc+15 ; @14f8
14e4 3847   LDA 3 47
14e5 ed00   SUB 3 1
14e6 a204   MOV 1 0 szr
14e7 01f4   JMP pc-c ; 14db
14e8 8550   SUBL 0 0
14e9 0441   JMP @41
14ea aa0c   MOV# 1 1 szr
14eb 01e3   JMP pc-1d ; 14ce
14ec 10c1   ISZ c1
14ed 01d2   JMP pc-2e ; 14bf
14ee aa0c   MOV# 1 1 szr
14ef 0105   JMP pc+5 ; 14f4
14f0 390e   LDA 3 pc+e ; 14fe
14f1 9c1b   ADC# 0 3 snc
14f2 01f8   JMP pc-8 ; 14ea
14f3 10c0   ISZ c0
14f4 38c0   LDA 3 c0
14f5 fa0c   MOV# 3 3 szr
14f6 01c5   JMP pc-3b ; 14bb
14f7 01f3   JMP pc-d ; 14ea
14f8 0f0c   JMS @ac3+c
14f9 0007   JMP 7
14fa 00ec   JMP ec
14fb 0020   JMP 20
14fc 00c3   JMP c3
14fd 0026   JMP 26
14fe 0025   JMP 25

jms @40 50
14ff 20b5   LDA 0 b5
1500 4111   STA 0 pc+11 ; 1511
1501 2049   LDA 0 49
1502 0c40   JMS @40
1503 002b   
1504 1074   ISZ 74
1505 0c40   JMS @40
1506 001d   
1507 0c40   JMS @40
1508 0003   
1509 d20d   MOV# 2 2 snr
150a 0103   JMP pc+3 ; 150d
150b 1874   DSZ 74
150c 8208   MOV# 0 0
150d 2104   LDA 0 pc+4 ; 1511
150e 0c40   JMS @40
150f 002b   
1510 0441   JMP @41
1511 0000   JMP 0

jms @40 41
1512 38a5   LDA 3 a5
1513 fa0d   MOV# 3 3 snr
1514 fd50   SUBL 3 3
1515 5891   STA 3 91
1516 3847   LDA 3 47
1517 588f   STA 3 8f
1518 3890   LDA 3 90
1519 fa0d   MOV# 3 3 snr
151a 0107   JMP pc+7 ; 1521
151b fd00   SUB 3 3
151c 303d   LDA 2 3d
151d 5a04   STA 3 ac2+4
151e 5a05   STA 3 ac2+5
151f 5a30   STA 3 ac2+30
1520 0441   JMP @41
1521 0c40   JMS @40
1522 0026   
1523 0c40   JMS @40
1524 0010   
1525 0c40   JMS @40
1526 0001   
1527 1874   DSZ 74
1528 8208   MOV# 0 0
1529 0c41   JMS @41

jms @40 45
152a 0c40   JMS @40
152b 001e   
152c 2917   LDA 1 pc+17 ; 1543
152d 8d12   SUB 0 1 szc
152e 0102   JMP pc+2 ; 1530
152f 0441   JMP @41
1530 450f   STA 0 @pc+f ; @153f
1531 4d0f   STA 1 @pc+f ; @1540
1532 310f   LDA 2 pc+f ; 1541
1533 2848   LDA 1 48
1534 b600   ADD 1 2
1535 8280   MOVR 0 0
1536 2a00   LDA 1 ac2+0
1537 8e00   ADD 0 1
1538 3109   LDA 2 pc+9 ; 1541
1539 d300   INC 2 2
153a 4a00   STA 1 ac2+0
153b 2107   LDA 0 pc+7 ; 1542
153c b200   MOV 1 2
153d 4200   STA 0 ac2+0
153e 0441   JMP @41
153f 01f7   JMP pc-9 ; 1536
1540 01ee   JMP pc-12 ; 152e
1541 06fb   JMP @ac2-5
1542 ff00   AND 3 3
1543 03e7   JMP ac3-19

jms @40 53
1544 3890   LDA 3 90
1545 fa0c   MOV# 3 3 szr
1546 0104   JMP pc+4 ; 154a
1547 0c40   JMS @40
1548 0051   
1549 0441   JMP @41
154a 0c40   JMS @40
154b 0051   
154c 0c40   JMS @40
154d 001e   
154e 395c   LDA 3 pc+5c ; 15aa
154f 9d1b   SUB# 0 3 snc
1550 215a   LDA 0 pc+5a ; 15aa
1551 9200   MOV 0 2
1552 ad00   SUB 1 1
1553 4c59   STA 1 @59
1554 ab00   INC 1 1
1555 5153   STA 2 pc+53 ; 15a8
1556 3859   LDA 3 59
1557 5952   STA 3 pc+52 ; 15a9
1558 1151   ISZ pc+51 ; 15a9
1559 4d50   STA 1 @pc+50 ; @15a9
155a 194e   DSZ pc+4e ; 15a8
155b 01fd   JMP pc-3 ; 1558
155c ac00   ADC 1 1
155d 114c   ISZ pc+4c ; 15a9
155e 4d4b   STA 1 @pc+4b ; @15a9
155f 48ae   STA 1 ae
1560 50a8   STA 2 a8
1561 0441   JMP @41

jms @40 54
1562 3890   LDA 3 90
1563 fa0d   MOV# 3 3 snr
1564 01e3   JMP pc-1d ; 1547
1565 0c40   JMS @40
1566 0051   
1567 8500   SUB 0 0
1568 d500   SUB 2 2
1569 4459   STA 0 @59
156a 3859   LDA 3 59
156b 593e   STA 3 pc+3e ; 15a9
156c 293e   LDA 1 pc+3e ; 15aa
156d 493b   STA 1 pc+3b ; 15a8
156e 0c40   JMS @40
156f 001e   
1570 831d   INC# 0 0 snr
1571 01eb   JMP pc-15 ; 155c
1572 9600   ADD 0 2
1573 1136   ISZ pc+36 ; 15a9
1574 4535   STA 0 @pc+35 ; @15a9
1575 1933   DSZ pc+33 ; 15a8
1576 01f8   JMP pc-8 ; 156e
1577 01e5   JMP pc-1b ; 155c

jms @40 56
1578 3890   LDA 3 90
1579 fa0d   MOV# 3 3 snr
157a 01cd   JMP pc-33 ; 1547
157b 0c40   JMS @40
157c 0051   
157d 312d   LDA 2 pc+2d ; 15aa
157e 512a   STA 2 pc+2a ; 15a8
157f ad00   SUB 1 1
1580 4c59   STA 1 @59
1581 3859   LDA 3 59
1582 5927   STA 3 pc+27 ; 15a9

jms @40 63
1583 1925   DSZ pc+25 ; 15a8
1584 0106   JMP pc+6 ; 158a
1585 1124   ISZ pc+24 ; 15a9
1586 ad00   SUB 1 1
1587 4d22   STA 1 @pc+22 ; @15a9
1588 d400   ADC 2 2
1589 01d3   JMP pc-2d ; 155c
158a 0c40   JMS @40
158b 001e   
158c 111d   ISZ pc+1d ; 15a9
158d 831d   INC# 0 0 snr
158e 01f8   JMP pc-8 ; 1586
158f 8a00   MOV 0 1
1590 0c40   JMS @40
1591 0013   
1592 4d17   STA 1 @pc+17 ; @15a9
1593 01f0   JMP pc-10 ; 1583

jms @40 57
1594 3890   LDA 3 90
1595 fa0d   MOV# 3 3 snr
1596 0441   JMP @41
1597 385a   LDA 3 5a
1598 5911   STA 3 pc+11 ; 15a9
1599 3912   LDA 3 pc+12 ; 15ab
159a 590e   STA 3 pc+e ; 15a8
159b 3d0e   LDA 3 @pc+e ; @15a9
159c f80c   CMP# 3 3 szr
159d 0107   JMP pc+7 ; 15a4
159e 3879   LDA 3 79
159f 5d0a   STA 3 @pc+a ; @15a9
15a0 1109   ISZ pc+9 ; 15a9
15a1 fc00   ADC 3 3
15a2 5d07   STA 3 @pc+7 ; @15a9
15a3 0441   JMP @41
15a4 1105   ISZ pc+5 ; 15a9
15a5 1903   DSZ pc+3 ; 15a8
15a6 01f5   JMP pc-b ; 159b
15a7 0441   JMP @41
15a8 0011   JMP 11
15a9 0366   JMP ac3+66
15aa 0014   JMP 14
15ab 0013   JMP 13

jms @40 24
15ac 0c43   JMS @43
15ad 0006   
15ae 28fb   LDA 1 fb
15af 3851   LDA 3 51
15b0 bd05   SUB 1 3 snr
15b1 0112   JMP pc+12 ; 15c3
15b2 3854   LDA 3 54
15b3 bf05   AND 1 3 snr
15b4 010f   JMP pc+f ; 15c3
15b5 3853   LDA 3 53
15b6 bf0c   AND# 1 3 szr
15b7 010f   JMP pc+f ; 15c6
15b8 3919   LDA 3 pc+19 ; 15d1
15b9 ed0d   SUB# 3 1 snr
15ba 0105   JMP pc+5 ; 15bf
15bb 3917   LDA 3 pc+17 ; 15d2
15bc ed0c   SUB# 3 1 szr
15bd 0104   JMP pc+4 ; 15c1
15be fd01   SUB 3 3 skp
15bf fc00   ADC 3 3
15c0 5913   STA 3 pc+13 ; 15d3
15c1 ad00   SUB 1 1
15c2 0441   JMP @41

15c3 5910   STA 3 pc+10 ; 15d3
15c4 ac00   ADC 1 1
15c5 0441   JMP @41
15c6 a800   CMP 1 1
15c7 3856   LDA 3 56
15c8 58fb   STA 3 fb
15c9 ef00   AND 3 1
15ca 3909   LDA 3 pc+9 ; 15d3
15cb fa0c   MOV# 3 3 szr
15cc a900   NEG 1 1
15cd b600   ADD 1 2
15ce 0c44   JMS @44
15cf 0006   
15d0 01f1   JMP pc-f ; 15c1
15d1 0048   JMP 48
15d2 0047   JMP 47
15d3 0000   JMP 0

jms @40 58
15d4 206a   LDA 0 6a
15d5 0106   JMP pc+6 ; 15db

jms @40 59
15d6 1074   ISZ 74
15d7 0c40   JMS @40
15d8 001d   
15d9 3852   LDA 3 52
15da e700   AND 3 0
15db 40cd   STA 0 cd

jms @40 49
15dc fc00   ADC 3 3
15dd 58d0   STA 3 d0

jms @40 40
15de fc00   ADC 3 3
15df 58ce   STA 3 ce
15e0 58cf   STA 3 cf
15e1 2064   LDA 0 64
15e2 3890   LDA 3 90
15e3 fa0c   MOV# 3 3 szr
15e4 38d7   LDA 3 d7
15e5 fa0c   MOV# 3 3 szr
15e6 2065   LDA 0 65
15e7 0c40   JMS @40
15e8 0022   
15e9 0441   JMP @41

jms @40 1d
15ea 3856   LDA 3 56
15eb 2074   LDA 0 74
15ec e700   AND 3 0
15ed 4074   STA 0 74
15ee 3875   LDA 3 75
15ef fa04   MOV 3 3 szr
15f0 0121   JMP pc+21 ; 1611
15f1 2074   LDA 0 74
15f2 4076   STA 0 76
15f3 0c43   JMS @43
15f4 0007   
15f5 20fb   LDA 0 fb
15f6 820c   MOV# 0 0 szr
15f7 0441   JMP @41
15f8 0c40   JMS @40
15f9 000d   
15fa 2533   LDA 0 @pc+33 ; @162d
15fb 820d   MOV# 0 0 snr
15fc 01f5   JMP pc-b ; 15f1
15fd 8550   SUBL 0 0
15fe 6250   DOAS 0 10
15ff 384c   LDA 3 4c
1600 5930   STA 3 pc+30 ; 1630
1601 212d   LDA 0 pc+2d ; 162e
1602 6782   SKPDN 0 2
1603 01ff   JMP pc-1 ; 1602
1604 6242   DOAS 0 2
1605 392b   LDA 3 pc+2b ; 1630
1606 fa0d   MOV# 3 3 snr
1607 0105   JMP pc+5 ; 160c
1608 1928   DSZ pc+28 ; 1630
1609 01f8   JMP pc-8 ; 1601
160a 2125   LDA 0 pc+25 ; 162f
160b 01f7   JMP pc-9 ; 1602
160c 8500   SUB 0 0
160d 4520   STA 0 @pc+20 ; @162d
160e 6250   DOAS 0 10
160f 663f   HALT
1610 01e1   JMP pc-1f ; 15f1
1611 3874   LDA 3 74
1612 fa05   MOV 3 3 snr
1613 010c   JMP pc+c ; 161f
1614 f900   NEG 3 3
1615 f805   CMP 3 3 snr
1616 0110   JMP pc+10 ; 1626
1617 2078   LDA 0 78
1618 3874   LDA 3 74
1619 5877   STA 3 77
161a e600   ADD 3 0
161b 0c43   JMS @43
161c 0001   
161d 20fb   LDA 0 fb
161e 0441   JMP @41
161f 3857   LDA 3 57
1620 2078   LDA 0 78
1621 e600   ADD 3 0
1622 4078   STA 0 78
1623 1074   ISZ 74
1624 1074   ISZ 74
1625 01f2   JMP pc-e ; 1617
1626 3857   LDA 3 57
1627 2078   LDA 0 78
1628 e500   SUB 3 0
1629 4078   STA 0 78
162a 3856   LDA 3 56
162b 5874   STA 3 74
162c 01eb   JMP pc-15 ; 1617
162d 0a98   JMS ac2-68
162e 40e7   STA 0 e7
162f 4001   STA 0 1
1630 0000   JMP 0

jms @40 21; looks like rounded multiply by 20/12
1631 3062   LDA 2 62
1632 8a00   MOV 0 1
1633 8500   SUB 0 0
1634 0c3e   JMS @3e ; multiply 0 += 1*2
1635 3108   LDA 2 pc+8 ; 163d
1636 0c3f   JMS @3f ; divide 
1637 d290   MOVR 2 2
1638 941b   ADC# 0 2 snc
1639 ab00   INC 1 1
163a b250   MOVL 1 2
163b b600   ADD 1 2
163c 0441   JMP @41

163d 000c   12

jms @40 2a
163e 38c6   LDA 3 c6
163f fa0c   MOV# 3 3 szr
1640 0104   JMP pc+4 ; 1644
1641 0c40   JMS @40
1642 0005   
1643 0441   JMP @41
1644 40fb   STA 0 fb
1645 20b7   LDA 0 b7
1646 0c44   JMS @44
1647 0006   
1648 3905   LDA 3 pc+5 ; 164d
1649 e50c   SUB# 3 0 szr
164a 8300   INC 0 0
164b 40b7   STA 0 b7
164c 0441   JMP @41
164d 024e   JMP ac2+4e

jms @40 5a
164e 3890   LDA 3 90
164f fa0c   MOV# 3 3 szr
1650 0104   JMP pc+4 ; 1654
1651 0c40   JMS @40
1652 0041   
1653 0441   JMP @41
1654 3881   LDA 3 81
1655 5968   STA 3 pc+68 ; 16bd
1656 fd00   SUB 3 3
1657 5967   STA 3 pc+67 ; 16be
1658 5967   STA 3 pc+67 ; 16bf
1659 0c40   JMS @40
165a 001e   
165b 800c   CMP# 0 0 szr
165c 820d   MOV# 0 0 snr
165d 0148   JMP pc+48 ; 16a5
165e 3856   LDA 3 56
165f e51a   SUB# 3 0 szc
1660 0156   JMP pc+56 ; 16b6
1661 0c40   JMS @40
1662 0023   
1663 38f9   LDA 3 f9
1664 fa0d   MOV# 3 3 snr
1665 0562   JMP @pc+62 ; @16c7
1666 3857   LDA 3 57
1667 5959   STA 3 pc+59 ; 16c0
1668 0d5e   JMS @pc+5e ; @16c6
1669 1957   DSZ pc+57 ; 16c0
166a 2056   LDA 0 56
166b 0d5a   JMS @pc+5a ; @16c5
166c 0c40   JMS @40
166d 001d   
166e 3953   LDA 3 pc+53 ; 16c1
166f 9d0d   SUB# 0 3 snr
1670 010f   JMP pc+f ; 167f
1671 3951   LDA 3 pc+51 ; 16c2
1672 9d0d   SUB# 0 3 snr
1673 010a   JMP pc+a ; 167d
1674 394f   LDA 3 pc+4f ; 16c3
1675 9d0d   SUB# 0 3 snr
1676 0109   JMP pc+9 ; 167f
1677 394d   LDA 3 pc+4d ; 16c4
1678 9d0d   SUB# 0 3 snr
1679 0123   JMP pc+23 ; 169c
167a 5944   STA 3 pc+44 ; 16be
167b 0d4a   JMS @pc+4a ; @16c5
167c 01f0   JMP pc-10 ; 166c
167d 1874   DSZ 74
167e 8208   MOV# 0 0
167f 2144   LDA 0 pc+44 ; 16c3
1680 0d46   JMS @pc+46 ; @16c6
1681 2056   LDA 0 56
1682 0d44   JMS @pc+44 ; @16c6
1683 2878   LDA 1 78
1684 2056   LDA 0 56
1685 393a   LDA 3 pc+3a ; 16bf
1686 fa0c   MOV# 3 3 szr
1687 0103   JMP pc+3 ; 168a
1688 3936   LDA 3 pc+36 ; 16be
1689 fa0d   MOV# 3 3 snr
168a 0d3c   JMS @pc+3c ; @16c6
168b ab00   INC 1 1
168c 2134   LDA 0 pc+34 ; 16c0
168d 8100   NEG 0 0
168e 0d38   JMS @pc+38 ; @16c6
168f fc00   ADC 3 3
1690 5878   STA 3 78
1691 3874   LDA 3 74
1692 fb00   INC 3 3
1693 2081   LDA 0 81
1694 5881   STA 3 81
1695 9d00   SUB 0 3
1696 2856   LDA 1 56
1697 bf00   AND 1 3
1698 58fc   STA 3 fc
1699 0c40   JMS @40
169a 0025   
169b 0441   JMP @41
169c 2128   LDA 0 pc+28 ; 16c4
169d 0d28   JMS @pc+28 ; @16c5
169e 0c40   JMS @40
169f 001d   
16a0 9ac0   MOVS 0 3
16a1 fa42   MOVL 3 3 szc
16a2 fa42   MOVL 3 3 szc
16a3 01da   JMP pc-26 ; 167d
16a4 01f9   JMP pc-7 ; 169d
16a5 2123   LDA 0 pc+23 ; 16c8
16a6 0106   JMP pc+6 ; 16ac
16a7 3856   LDA 3 56
16a8 58fb   STA 3 fb
16a9 0c44   JMS @44
16aa 0041   
16ab 211e   LDA 0 pc+1e ; 16c9
16ac 0c40   JMS @40
16ad 000e   
16ae fd00   SUB 3 3
16af 590f   STA 3 pc+f ; 16be
16b0 2056   LDA 0 56
16b1 410e   STA 0 pc+e ; 16bf
16b2 0c40   JMS @40
16b3 0023   
16b4 0d11   JMS @pc+11 ; @16c5
16b5 01b7   JMP pc-49 ; 166c
16b6 3914   LDA 3 pc+14 ; 16ca
16b7 9d0c   SUB# 0 3 szr
16b8 01ed   JMP pc-13 ; 16a5
16b9 ad00   SUB 1 1
16ba 2056   LDA 0 56
16bb 0d0b   JMS @pc+b ; @16c6
16bc 01d3   JMP pc-2d ; 168f
16bd 0000   JMP 0
16be 00f3   JMP f3
16bf 0000   JMP 0
16c0 00f7   JMP f7
16c1 00c2   JMP c2
16c2 00d6   JMP d6
16c3 00e2   JMP e2
16c4 00f3   JMP f3
16c5 16de   ISZ @ac2-22
16c6 16cb   ISZ @ac2-35
16c7 16f6   ISZ @ac2-a
16c8 0010   JMP 10
16c9 0011   JMP 11
16ca 03e7   JMP ac3-19
16cb 5912   STA 3 pc+12 ; 16dd
16cc 40fb   STA 0 fb
16cd 0c44   JMS @44
16ce 0041   
16cf ab00   INC 1 1
16d0 3845   LDA 3 45
16d1 3b0a   LDA 3 ac3+a
16d2 bd0c   SUB# 1 3 szr
16d3 050a   JMP @pc+a ; @16dd
16d4 2878   LDA 1 78
16d5 0c43   JMS @43
16d6 0041   
16d7 38fb   LDA 3 fb
16d8 fa0c   MOV# 3 3 szr
16d9 01ce   JMP pc-32 ; 16a7
16da 3857   LDA 3 57
16db ed00   SUB 3 1
16dc 01f9   JMP pc-7 ; 16d5
16dd 168f   ISZ @ac2-71
16de 5917   STA 3 pc+17 ; 16f5
16df 39e0   LDA 3 pc-20 ; 16bf
16e0 fa0c   MOV# 3 3 szr
16e1 0108   JMP pc+8 ; 16e9
16e2 09e9   JMS pc-17 ; 16cb

jms @40 74
16e3 19dd   DSZ pc-23 ; 16c0
16e4 0105   JMP pc+5 ; 16e9
16e5 4878   STA 1 78
16e6 8500   SUB 0 0
16e7 0501   JMP @pc+1 ; @16e8
16e8 1666   ISZ @ac2+66
16e9 1074   ISZ 74
16ea 3874   LDA 3 74
16eb 2056   LDA 0 56
16ec 9f00   AND 0 3
16ed 21d0   LDA 0 pc-30 ; 16bd
16ee 9d0c   SUB# 0 3 szr
16ef 0506   JMP @pc+6 ; @16f5
16f0 3857   LDA 3 57
16f1 58fc   STA 3 fc
16f2 0c40   JMS @40
16f3 0025   
16f4 0501   JMP @pc+1 ; @16f5
16f5 167c   ISZ @ac2+7c
16f6 48fc   STA 1 fc
16f7 ab00   INC 1 1
16f8 0c43   JMS @43
16f9 0041   
16fa 38fb   LDA 3 fb
16fb ee00   ADD 3 1
16fc 0c43   JMS @43
16fd 0041   
16fe 38fb   LDA 3 fb
16ff fa0d   MOV# 3 3 snr
1700 01f7   JMP pc-9 ; 16f7
1701 2056   LDA 0 56
1702 48fd   STA 1 fd
1703 0c40   JMS @40
1704 0023   
1705 20fd   LDA 0 fd
1706 8d00   SUB 0 1
1707 ab00   INC 1 1
1708 48fd   STA 1 fd
1709 28fc   LDA 1 fc
170a 0c43   JMS @43
170b 0001   
170c 0c44   JMS @44
170d 0041   
170e 8300   INC 0 0
170f ab00   INC 1 1
1710 18fd   DSZ fd
1711 01f9   JMP pc-7 ; 170a
1712 39ab   LDA 3 pc-55 ; 16bd
1713 5874   STA 3 74
1714 1874   DSZ 74
1715 8208   MOV# 0 0
1716 0441   JMP @41

jms @40 5b
1717 2459   LDA 0 @59
1718 800d   CMP# 0 0 snr
1719 0441   JMP @41
171a 8400   ADC 0 0
171b 445a   STA 0 @5a
171c 2090   LDA 0 90
171d 820d   MOV# 0 0 snr
171e 0110   JMP pc+10 ; 172e
171f 0c40   JMS @40
1720 0051   
1721 8500   SUB 0 0
1722 40ae   STA 0 ae
1723 0c5c   JMS @5c
1724 0318   
1725 04b4   
1726 0031   
1727 0c5b   JMS @5b
1728 0318   JMP ac3+18
1729 0031   JMP 31
172a 0441   JMP @41

jms @40 55
172b 3890   LDA 3 90
172c fa0c   MOV# 3 3 szr
172d 0104   JMP pc+4 ; 1731
172e 0c40   JMS @40
172f 0048   
1730 0441   JMP @41
1731 38ae   LDA 3 ae
1732 f80d   CMP# 3 3 snr
1733 0441   JMP @41
1734 fc00   ADC 3 3
1735 58ae   STA 3 ae
1736 0c5c   JMS @5c
1737 04b4   
1738 0318   
1739 0031   
173a 0c40   JMS @40
173b 0031   
173c 0441   JMP @41

jms @40 48
173d fd50   SUBL 3 3
173e 0106   JMP pc+6 ; 1744

jms @40 4a
173f 3847   LDA 3 47
1740 0104   JMP pc+4 ; 1744

jms @40 47
1741 3848   LDA 3 48
1742 0102   JMP pc+2 ; 1744

jms @40 44
1743 3849   LDA 3 49
1744 5891   STA 3 91
1745 8550   SUBL 0 0
1746 38ae   LDA 3 ae
1747 f80c   CMP# 3 3 szr
1748 8400   ADC 0 0
1749 408f   STA 0 8f
174a 3890   LDA 3 90
174b fa0d   MOV# 3 3 snr
174c 0527   JMP @pc+27 ; @1773
174d 800c   CMP# 0 0 szr
174e 0441   JMP @41
174f 10ae   ISZ ae
1750 20c6   LDA 0 c6
1751 820d   MOV# 0 0 snr
1752 0441   JMP @41
1753 3059   LDA 2 59
1754 20ae   LDA 0 ae
1755 9600   ADD 0 2
1756 3200   LDA 2 ac2+0
1757 2079   LDA 0 79
1758 9500   SUB 0 2
1759 0c40   JMS @40
175a 0030   
175b 0c40   JMS @40
175c 0029   
175d 3059   LDA 2 59
175e 20ae   LDA 0 ae
175f 9600   ADD 0 2
1760 2201   LDA 0 ac2+1
1761 800c   CMP# 0 0 szr
1762 01c5   JMP pc-3b ; 1727
1763 0c40   JMS @40
1764 0051   
1765 0441   JMP @41

jms @40 12
1766 0c40   JMS @40
1767 0015   
1768 0c40   JMS @40
1769 001d   
176a fd50   SUBL 3 3
176b 588f   STA 3 8f
176c 0c40   JMS @40
176d 0026   
176e 0c40   JMS @40
176f 0010   
1770 0c40   JMS @40
1771 0001   
1772 0441   JMP @41
1773 1521   ISZ @pc+21 ; @1794

jms @40 51
1774 3890   LDA 3 90
1775 fa0c   MOV# 3 3 szr
1776 0104   JMP pc+4 ; 177a
1777 0c40   JMS @40
1778 0041   
1779 0441   JMP @41
177a ad00   SUB 1 1
177b 0c43   JMS @43
177c 0043   
177d 38fb   LDA 3 fb
177e 3056   LDA 2 56
177f dd0d   SUB# 2 3 snr
1780 0103   JMP pc+3 ; 1783
1781 ab00   INC 1 1
1782 01f9   JMP pc-7 ; 177b
1783 4934   STA 1 pc+34 ; 17b7
1784 3053   LDA 2 53
1785 1074   ISZ 74
1786 0c40   JMS @40
1787 001d   
1788 3858   LDA 3 58
1789 9d0c   SUB# 0 3 szr
178a 0106   JMP pc+6 ; 1790
178b 3851   LDA 3 51
178c f800   CMP 3 3
178d f700   AND 3 2
178e f400   ADC 3 2
178f 01f6   JMP pc-a ; 1785
1790 3856   LDA 3 56
1791 e50d   SUB# 3 0 snr
1792 010f   JMP pc+f ; 17a1
1793 8290   MOVR 0 0
1794 397d   LDA 3 pc+7d ; 1811
1795 e50d   SUB# 3 0 snr
1796 8500   SUB 0 0
1797 c600   ADD 2 0
1798 40fb   STA 0 fb
1799 d500   SUB 2 2
179a 0c44   JMS @44
179b 0043   
179c ab00   INC 1 1
179d 3d1e   LDA 3 @pc+1e ; @17bb
179e bd1b   SUB# 1 3 snc
179f 2d1c   LDA 1 @pc+1c ; @17bb
17a0 01e5   JMP pc-1b ; 1785
17a1 3d1a   LDA 3 @pc+1a ; @17bb
17a2 bd0c   SUB# 1 3 szr
17a3 0105   JMP pc+5 ; 17a8
17a4 2116   LDA 0 pc+16 ; 17ba
17a5 0c40   JMS @40
17a6 000e   
17a7 2910   LDA 1 pc+10 ; 17b7
17a8 3856   LDA 3 56
17a9 58fb   STA 3 fb
17aa 0c44   JMS @44
17ab 0043   
17ac 3874   LDA 3 74
17ad fb00   INC 3 3
17ae 2081   LDA 0 81
17af 5881   STA 3 81
17b0 9d00   SUB 0 3
17b1 2856   LDA 1 56
17b2 bf00   AND 1 3
17b3 58fc   STA 3 fc
17b4 0c40   JMS @40
17b5 0025   
17b6 0441   JMP @41
17b7 0000   JMP 0
17b8 0000   JMP 0
17b9 0000   JMP 0
17ba 0013   JMP 13
17bb 01ee   JMP pc-12 ; 17a9
17bc 0038   JMP 38
17bd 003a   JMP 3a
17be 0033   JMP 33
17bf 002c   JMP 2c
17c0 0014   JMP 14
17c1 ffc0   ANDS 3 3
17c2 0037   JMP 37
17c3 0020   JMP 20

jms @40 52
17c4 3890   LDA 3 90
17c5 fa0d   MOV# 3 3 snr
17c6 01b1   JMP pc-4f ; 1777
17c7 8500   SUB 0 0
17c8 40c7   STA 0 c7
17c9 1074   ISZ 74
17ca 0c40   JMS @40
17cb 001d   
17cc 384f   LDA 3 4f
17cd 9c1a   ADC# 0 3 szc
17ce 015d   JMP pc+5d ; 182b
17cf 9d0c   SUB# 0 3 szr
17d0 0105   JMP pc+5 ; 17d5
17d1 2056   LDA 0 56
17d2 40fb   STA 0 fb
17d3 ad00   SUB 1 1
17d4 01d6   JMP pc-2a ; 17aa
17d5 39e7   LDA 3 pc-19 ; 17bc
17d6 9d0c   SUB# 0 3 szr
17d7 0151   JMP pc+51 ; 1828
17d8 0946   JMS pc+46 ; 181e
17d9 ad00   SUB 1 1
17da 0c43   JMS @43
17db 0043   
17dc 30fb   LDA 2 fb
17dd 3856   LDA 3 56
17de dd0d   SUB# 2 3 snr
17df 0134   JMP pc+34 ; 1813
17e0 21de   LDA 0 pc-22 ; 17be
17e1 0c40   JMS @40
17e2 002a   
17e3 21dc   LDA 0 pc-24 ; 17bf
17e4 0c40   JMS @40
17e5 002a   
17e6 2047   LDA 0 47
17e7 0c40   JMS @40
17e8 002a   
17e9 49cf   STA 1 pc-31 ; 17b8
17ea 3851   LDA 3 51
17eb f70d   AND# 3 2 snr
17ec 0104   JMP pc+4 ; 17f0
17ed 21cd   LDA 0 pc-33 ; 17ba
17ee 0c40   JMS @40
17ef 002a   
17f0 3850   LDA 3 50
17f1 f700   AND 3 2
17f2 2920   LDA 1 pc+20 ; 1812
17f3 d20d   MOV# 2 2 snr
17f4 010e   JMP pc+e ; 1802
17f5 ad00   SUB 1 1
17f6 0c43   JMS @43
17f7 004c   
17f8 38fb   LDA 3 fb
17f9 fa90   MOVR 3 3
17fa f50d   SUB# 3 2 snr
17fb 0107   JMP pc+7 ; 1802
17fc ab00   INC 1 1
17fd ab00   INC 1 1
17fe 3852   LDA 3 52
17ff ec1b   ADC# 3 1 snc
1800 01f6   JMP pc-a ; 17f6
1801 ad00   SUB 1 1
1802 a290   MOVR 1 0
1803 0c40   JMS @40
1804 002a   
1805 29b3   LDA 1 pc-4d ; 17b8
1806 ab00   INC 1 1
1807 0c43   JMS @43
1808 0043   
1809 30fb   LDA 2 fb
180a 3853   LDA 3 53
180b f70d   AND# 3 2 snr
180c 01dd   JMP pc-23 ; 17e9
180d 21b5   LDA 0 pc-4b ; 17c2
180e 0c40   JMS @40
180f 002a   
1810 01cd   JMP pc-33 ; 17dd
1811 0027   JMP 27
1812 0072   JMP 72
1813 21ab   LDA 0 pc-55 ; 17be
1814 0c40   JMS @40
1815 002a   
1816 2047   LDA 0 47
1817 0c40   JMS @40
1818 002a   
1819 21aa   LDA 0 pc-56 ; 17c3
181a 0c40   JMS @40
181b 002a   
181c 0902   JMS pc+2 ; 181e
181d 018f   JMP pc-71 ; 17ac

181e 599b   STA 3 pc-65 ; 17b9
181f 29a2   LDA 1 pc-5e ; 17c1
1820 8500   SUB 0 0
1821 0c40   JMS @40
1822 002a   
1823 ab04   INC 1 1 szr
1824 01fd   JMP pc-3 ; 1821
1825 3994   LDA 3 pc-6c ; 17b9
1826 0300   JMP ac3+0

1827 004e   JMP 4e
1828 3995   LDA 3 pc-6b ; 17bd
1829 9d0d   SUB# 0 3 snr
182a 015b   JMP pc+5b ; 1885
182b d500   SUB 2 2
182c 3858   LDA 3 58
182d e50d   SUB# 3 0 snr
182e 0113   JMP pc+13 ; 1841
182f 3856   LDA 3 56
1830 e50d   SUB# 3 0 snr
1831 0114   JMP pc+14 ; 1845
1832 8290   MOVR 0 0
1833 39de   LDA 3 pc-22 ; 1811
1834 e50d   SUB# 3 0 snr
1835 8500   SUB 0 0
1836 40fb   STA 0 fb
1837 0c44   JMS @44
1838 0089   
1839 d300   INC 2 2
183a 384e   LDA 3 4e
183b 9c1a   ADC# 0 3 szc
183c 0105   JMP pc+5 ; 1841
183d 2183   LDA 0 pc-7d ; 17c0
183e 0c40   JMS @40
183f 000e   
1840 01dd   JMP pc-23 ; 181d
1841 1074   ISZ 74
1842 0c40   JMS @40
1843 001d   
1844 01e8   JMP pc-18 ; 182c
1845 50c7   STA 2 c7
1846 8500   SUB 0 0
1847 ad00   SUB 1 1
1848 413a   STA 0 pc+3a ; 1882
1849 0c43   JMS @43
184a 0049   
184b 30fb   LDA 2 fb
184c 0c43   JMS @43
184d 0003   
184e 38fb   LDA 3 fb
184f 4132   STA 0 pc+32 ; 1881
1850 2056   LDA 0 56
1851 e50c   SUB# 3 0 szr
1852 0111   JMP pc+11 ; 1863
1853 20c7   LDA 0 c7
1854 8d0c   SUB# 0 1 szr
1855 0127   JMP pc+27 ; 187c
1856 292c   LDA 1 pc+2c ; 1882
1857 212a   LDA 0 pc+2a ; 1881
1858 0c43   JMS @43
1859 0003   
185a 0c44   JMS @44
185b 0043   
185c 38fb   LDA 3 fb
185d 3056   LDA 2 56
185e f50d   SUB# 3 2 snr
185f 01be   JMP pc-42 ; 181d
1860 ab00   INC 1 1
1861 8300   INC 0 0
1862 01f6   JMP pc-a ; 1858
1863 aa0d   MOV# 1 1 snr
1864 0104   JMP pc+4 ; 1868
1865 2053   LDA 0 53
1866 9f0c   AND# 0 3 szr
1867 01ec   JMP pc-14 ; 1853
1868 2050   LDA 0 50
1869 9f00   AND 0 3
186a dd0c   SUB# 2 3 szr
186b 0108   JMP pc+8 ; 1873
186c ab00   INC 1 1
186d 20c7   LDA 0 c7
186e 8c1a   ADC# 0 1 szc
186f 0104   JMP pc+4 ; 1873
1870 2111   LDA 0 pc+11 ; 1881
1871 8300   INC 0 0
1872 01d7   JMP pc-29 ; 1849
1873 210e   LDA 0 pc+e ; 1881
1874 8300   INC 0 0
1875 0c43   JMS @43
1876 0003   
1877 28fb   LDA 1 fb
1878 3853   LDA 3 53
1879 bf04   AND 1 3 szr
187a 01cd   JMP pc-33 ; 1847
187b 01f9   JMP pc-7 ; 1874
187c 2056   LDA 0 56
187d 9d0c   SUB# 0 3 szr
187e 01c9   JMP pc-37 ; 1847
187f 2104   LDA 0 pc+4 ; 1883
1880 01be   JMP pc-42 ; 183e
1881 0000   JMP 0
1882 0000   JMP 0
1883 0015   JMP 15
1884 002e   JMP 2e
1885 8500   SUB 0 0
1886 ad00   SUB 1 1
1887 0c43   JMS @43
1888 0003   
1889 30fb   LDA 2 fb
188a 3853   LDA 3 53
188b df0c   AND# 2 3 szr
188c 0115   JMP pc+15 ; 18a1
188d 3851   LDA 3 51
188e df0d   AND# 2 3 snr
188f 0106   JMP pc+6 ; 1895
1890 3858   LDA 3 58
1891 58fb   STA 3 fb
1892 0c44   JMS @44
1893 0053   
1894 ab00   INC 1 1
1895 3850   LDA 3 50
1896 f760   ANDL 3 2
1897 d20d   MOV# 2 2 snr
1898 318f   LDA 2 pc-71 ; 1827
1899 50fb   STA 2 fb
189a 0c44   JMS @44
189b 0053   
189c 8300   INC 0 0
189d ab00   INC 1 1
189e 39e6   LDA 3 pc-1a ; 1884
189f bc1a   ADC# 1 3 szc
18a0 01e7   JMP pc-19 ; 1887
18a1 41e0   STA 0 pc-20 ; 1881
18a2 aa0d   MOV# 1 1 snr
18a3 010e   JMP pc+e ; 18b1
18a4 3855   LDA 3 55
18a5 58fb   STA 3 fb
18a6 0c44   JMS @44
18a7 0053   
18a8 ab00   INC 1 1
18a9 3856   LDA 3 56
18aa 58fb   STA 3 fb
18ab 0c44   JMS @44
18ac 0053   
18ad 0c40   JMS @40
18ae 0019   
18af 21d2   LDA 0 pc-2e ; 1881
18b0 01d6   JMP pc-2a ; 1886
18b1 3856   LDA 3 56
18b2 dd0c   SUB# 2 3 szr
18b3 01da   JMP pc-26 ; 188d
18b4 ad00   SUB 1 1
18b5 0c44   JMS @44
18b6 0053   
18b7 01a8   JMP pc-58 ; 185f

jms @40 5f
18b8 0c40   JMS @40
18b9 001e   
18ba 800c   CMP# 0 0 szr
18bb 820d   MOV# 0 0 snr
18bc 0104   JMP pc+4 ; 18c0
18bd 3c45   LDA 3 @45
18be 9d1a   SUB# 0 3 szc
18bf 0105   JMP pc+5 ; 18c4
18c0 2106   LDA 0 pc+6 ; 18c6
18c1 0c40   JMS @40
18c2 000e   
18c3 2446   LDA 0 @46
18c4 4060   STA 0 60
18c5 0441   JMP @41
18c6 000a   JMP a
18c7 0c40   JMS @40

18c8 001e   

jms @40 2b
18c9 4061   STA 0 61
18ca 3045   LDA 2 45
18cb 3a02   LDA 3 ac2+2
18cc 9d1b   SUB# 0 3 snc
18cd 010b   JMP pc+b ; 18d8
18ce 8100   NEG 0 0
18cf 8000   CMP 0 0
18d0 0c43   JMS @43
18d1 0005   
18d2 2a04   LDA 1 ac2+4
18d3 30fb   LDA 2 fb
18d4 8500   SUB 0 0
18d5 0c3e   JMS @3e
18d6 487b   STA 1 7b
18d7 0107   JMP pc+7 ; 18de
18d8 2117   LDA 0 pc+17 ; 18ef
18d9 0c40   JMS @40
18da 000e   

jms @40 32
18db 3046   LDA 2 46
18dc 2201   LDA 0 ac2+1
18dd 01ec   JMP pc-14 ; 18c9
18de 306b   LDA 2 6b
18df 250f   LDA 0 @pc+f ; @18ee
18e0 9600   ADD 0 2
18e1 b600   ADD 1 2
18e2 0c43   JMS @43
18e3 0082   
18e4 20fb   LDA 0 fb
18e5 9250   MOVL 0 2
18e6 c600   ADD 2 0
18e7 3909   LDA 3 pc+9 ; 18f0
18e8 e500   SUB 3 0
18e9 406d   STA 0 6d
18ea 0441   JMP @41

jms @40 91
18eb 0c40   JMS @40
18ec 001e   
18ed 01f8   JMP pc-8 ; 18e5
18ee 01f5   JMP pc-b ; 18e3
18ef 000b   JMP b
18f0 012c   JMP pc+2c ; 191c

jms @40 61
18f1 0c40   JMS @40
18f2 001e   
18f3 800c   CMP# 0 0 szr
18f4 4063   STA 0 63
18f5 fd00   SUB 3 3
18f6 586e   STA 3 6e
18f7 820d   MOV# 0 0 snr
18f8 fb00   INC 3 3

jms @40 8a
18f9 58a6   STA 3 a6
18fa 0441   JMP @41

jms @40 6f
18fb fd00   SUB 3 3
18fc 5863   STA 3 63
18fd 01fc   JMP pc-4 ; 18f9

jms @40 62
18fe 0c40   JMS @40
18ff 001e   
1900 800c   CMP# 0 0 szr
1901 4064   STA 0 64
1902 0c40   JMS @40
1903 001e   
1904 800c   CMP# 0 0 szr
1905 4065   STA 0 65
1906 0c40   JMS @40
1907 001e   
1908 800c   CMP# 0 0 szr
1909 4066   STA 0 66
190a 0c40   JMS @40
190b 001e   
190c 800c   CMP# 0 0 szr
190d 4070   STA 0 70
190e 2866   LDA 1 66
190f aac0   MOVS 1 1
1910 3064   LDA 2 64
1911 8500   SUB 0 0
1912 0c3f   JMS @3f
1913 3857   LDA 3 57
1914 bc1a   ADC# 1 3 szc
1915 0104   JMP pc+4 ; 1919
1916 ed00   SUB 3 1
1917 486c   STA 1 6c
1918 0441   JMP @41
1919 210b   LDA 0 pc+b ; 1924
191a 0c40   JMS @40
191b 000e   
191c 3046   LDA 2 46
191d 2204   LDA 0 ac2+4
191e 4064   STA 0 64
191f 2205   LDA 0 ac2+5
1920 4065   STA 0 65
1921 2206   LDA 0 ac2+6
1922 4066   STA 0 66
1923 01eb   JMP pc-15 ; 190e
1924 000e   JMP e
1925 0c40   JMS @40
1926 001e   
1927 3845   LDA 3 45
1928 3303   LDA 2 ac3+3
1929 50c3   STA 2 c3
192a ad00   SUB 1 1
192b 0c43   JMS @43
192c 0050   
192d 38fb   LDA 3 fb
192e ab00   INC 1 1
192f e50d   SUB# 3 0 snr
1930 010a   JMP pc+a ; 193a
1931 d100   NEG 2 2
1932 d004   CMP 2 2 szr
1933 01f8   JMP pc-8 ; 192b
1934 210f   LDA 0 pc+f ; 1943
1935 0c40   JMS @40
1936 000e   

jms @40 1b
1937 3846   LDA 3 46
1938 2302   LDA 0 ac3+2
1939 01ee   JMP pc-12 ; 1927
193a 4062   STA 0 62
193b 486b   STA 1 6b
193c 30c4   LDA 2 c4
193d 941b   ADC# 0 2 snc
193e 40c4   STA 0 c4
193f fd00   SUB 3 3
1940 5863   STA 3 63
1941 307b   LDA 2 7b
1942 0502   JMP @pc+2 ; @1944
1943 000d   JMP d
1944 18df   DSZ df

jms @40 89
1945 ac01   ADC 1 1 skp

jms @40 8b
1946 ad00   SUB 1 1
1947 0c40   JMS @40
1948 001e   
1949 3890   LDA 3 90
194a fa0c   MOV# 3 3 szr
194b 800d   CMP# 0 0 snr
194c 0441   JMP @41
194d 0c40   JMS @40
194e 0028   
194f 0441   JMP @41

jms @40 68
1950 d500   SUB 2 2
1951 0106   JMP pc+6 ; 1957

jms @40 69
1952 3047   LDA 2 47
1953 0104   JMP pc+4 ; 1957

jms @40 6b
1954 3049   LDA 2 49
1955 0102   JMP pc+2 ; 1957

jms @40 6d
1956 304b   LDA 2 4b
1957 203d   LDA 0 3d
1958 9600   ADD 0 2
1959 0c40   JMS @40
195a 001e   
195b 800c   CMP# 0 0 szr
195c 4200   STA 0 ac2+0
195d 0c40   JMS @40
195e 001e   
195f 800c   CMP# 0 0 szr
1960 4201   STA 0 ac2+1
1961 0441   JMP @41

jms @40 6a
1962 3118   LDA 2 pc+18 ; 197a
1963 0106   JMP pc+6 ; 1969

jms @40 64
1964 3117   LDA 2 pc+17 ; 197b
1965 0104   JMP pc+4 ; 1969

jms @40 6c
1966 3116   LDA 2 pc+16 ; 197c
1967 0102   JMP pc+2 ; 1969

jms @40 65
1968 3115   LDA 2 pc+15 ; 197d
1969 384d   LDA 3 4d
196a 58fc   STA 3 fc
196b 203d   LDA 0 3d
196c 9600   ADD 0 2
196d 0c40   JMS @40
196e 001e   
196f 800d   CMP# 0 0 snr
1970 8500   SUB 0 0
1971 4200   STA 0 ac2+0
1972 d300   INC 2 2
1973 18fc   DSZ fc
1974 01f9   JMP pc-7 ; 196d
1975 0441   JMP @41

jms @40 6e
1976 3879   LDA 3 79
1977 303d   LDA 2 3d
1978 5a30   STA 3 ac2+30
1979 0441   JMP @41
197a 0008   JMP 8
197b 0012   JMP 12
197c 001c   JMP 1c
197d 0026   JMP 26

jms @40 70
197e 3878   LDA 3 78
197f f80d   CMP# 3 3 snr
1980 0441   JMP @41
1981 3875   LDA 3 75
1982 fa0c   MOV# 3 3 szr
1983 0116   JMP pc+16 ; 1999
1984 fc00   ADC 3 3
1985 5875   STA 3 75
1986 3877   LDA 3 77
1987 5874   STA 3 74
1988 387c   LDA 3 7c
1989 fa0d   MOV# 3 3 snr
198a 0441   JMP @41
198b 8500   SUB 0 0
198c 407c   STA 0 7c
198d 1074   ISZ 74
198e 0c40   JMS @40
198f 001d   
1990 390e   LDA 3 pc+e ; 199e
1991 9d0d   SUB# 0 3 snr
1992 0441   JMP @41
1993 390c   LDA 3 pc+c ; 199f
1994 9d0c   SUB# 0 3 szr
1995 01f8   JMP pc-8 ; 198d
1996 1874   DSZ 74
1997 8208   MOV# 0 0
1998 0441   JMP @41
1999 fd00   SUB 3 3
199a 5875   STA 3 75
199b 3876   LDA 3 76
199c 5874   STA 3 74
199d 0441   JMP @41
199e 00ec   JMP ec
199f 00e2   JMP e2

jms @40 71
19a0 3848   LDA 3 48
19a1 0104   JMP pc+4 ; 19a5

jms @40 72
19a2 3847   LDA 3 47
19a3 0102   JMP pc+2 ; 19a5

jms @40 73
19a4 fd50   SUBL 3 3
19a5 58a5   STA 3 a5
19a6 fd00   SUB 3 3
19a7 5867   STA 3 67
19a8 5868   STA 3 68
19a9 0441   JMP @41

jms @40 88
19aa 0c40   JMS @40
19ab 001e   
19ac 800d   CMP# 0 0 snr
19ad 8500   SUB 0 0
19ae 820d   MOV# 0 0 snr
19af 2061   LDA 0 61
19b0 8100   NEG 0 0
19b1 8000   CMP 0 0
19b2 0c43   JMS @43
19b3 0005   
19b4 3045   LDA 2 45
19b5 2a04   LDA 1 ac2+4
19b6 30fb   LDA 2 fb
19b7 8500   SUB 0 0
19b8 0c3e   JMS @3e
19b9 4921   STA 1 pc+21 ; 19da
19ba 0c40   JMS @40
19bb 001e   
19bc 800d   CMP# 0 0 snr
19bd 0441   JMP @41
19be 3845   LDA 3 45
19bf 3303   LDA 2 ac3+3
19c0 d100   NEG 2 2
19c1 ad00   SUB 1 1
19c2 0c43   JMS @43
19c3 0050   
19c4 38fb   LDA 3 fb
19c5 ab00   INC 1 1
19c6 e50d   SUB# 3 0 snr
19c7 0109   JMP pc+9 ; 19d0
19c8 d304   INC 2 2 szr
19c9 01f9   JMP pc-7 ; 19c2
19ca 2111   LDA 0 pc+11 ; 19db
19cb 0c40   JMS @40
19cc 000e   
19cd 0c40   JMS @40
19ce 001e   
19cf 01eb   JMP pc-15 ; 19ba
19d0 250c   LDA 0 @pc+c ; @19dc
19d1 3109   LDA 2 pc+9 ; 19da
19d2 9600   ADD 0 2
19d3 b600   ADD 1 2
19d4 0c40   JMS @40
19d5 001e   
19d6 40fb   STA 0 fb
19d7 0c44   JMS @44
19d8 0082   
19d9 01e1   JMP pc-1f ; 19ba
19da 0080   JMP 80
19db 000d   JMP d
19dc 01f5   JMP pc-b ; 19d1
19dd fd50   SUBL 3 3
19de 58ca   STA 3 ca
19df 0441   JMP @41

jms @40 76
19e0 fd01   SUB 3 3 skp

jms @40 75
19e1 fd50   SUBL 3 3
19e2 2090   LDA 0 90
19e3 820c   MOV# 0 0 szr
19e4 58cc   STA 3 cc
19e5 0441   JMP @41

jms @40 67
19e6 0c40   JMS @40
19e7 001e   
19e8 800c   CMP# 0 0 szr
19e9 40cb   STA 0 cb
19ea 0441   JMP @41

jms @40 77
19eb 0c40   JMS @40
19ec 001e   
19ed 3875   LDA 3 75
19ee fa0d   MOV# 3 3 snr
19ef 1876   DSZ 76
19f0 8208   MOV# 0 0
19f1 40a4   STA 0 a4
19f2 3856   LDA 3 56
19f3 e51a   SUB# 3 0 szc
19f4 010d   JMP pc+d ; 1a01

jms @40 78
19f5 20a4   LDA 0 a4
19f6 820d   MOV# 0 0 snr
19f7 010a   JMP pc+a ; 1a01
19f8 0c40   JMS @40
19f9 0023   
19fa 38f9   LDA 3 f9
19fb fa0c   MOV# 3 3 szr
19fc 0105   JMP pc+5 ; 1a01
19fd fd50   SUBL 3 3
19fe 5875   STA 3 75
19ff 5874   STA 3 74
1a00 0441   JMP @41
1a01 210d   LDA 0 pc+d ; 1a0e
1a02 0c40   JMS @40
1a03 000e   

jms @40 66
1a04 fc00   DOB 3 0
1a05 5878   STA 3 78
1a06 fd00   SUB 3 3
1a07 5877   STA 3 77
1a08 2075   LDA 0 75
1a09 820d   MOV# 0 0 snr
1a0a 0441   JMP @41
1a0b 5875   STA 3 75
1a0c 3876   LDA 3 76
1a0d 01f2   JMP pc-e ; 19ff
1a0e 000f   JMP f

jms @40 7c
1a0f fd00   DIC 3 0
1a10 58a5   STA 3 a5
1a11 3046   LDA 2 46
1a12 3a08   LDA 3 ac2+8
1a13 5868   STA 3 68
1a14 3a07   LDA 3 ac2+7
1a15 5867   STA 3 67
1a16 0441   JMP @41

jms @40 5d
1a17 fc01   ADC 3 3 skp

jms @40 79
1a18 fd00   SUB 3 3
1a19 01fc   JMP pc-4 ; 1a15

jms @40 7a
1a1a 8500   SUB 0 0
1a1b 383d   LDA 3 3d
1a1c 4302   STA 0 ac3+2
1a1d 4303   STA 0 ac3+3
1a1e 0441   JMP @41

jms @40 5e
1a1f fc01   ADC 3 3 skp

jms @40 7b
1a20 fd00   SUB 3 3
1a21 5868   STA 3 68
1a22 0441   JMP @41

jms @40 7d
1a23 fc00   ADC 3 3
1a24 58ae   STA 3 ae
1a25 5c59   STA 3 @59
1a26 0441   JMP @41

jms @40 7e
1a27 204f   LDA 0 4f
1a28 0c40   JMS @40
1a29 0003   
1a2a 0108   JMP pc+8 ; 1a32

jms @40 7f
1a2b 3845   LDA 3 45
1a2c 2305   LDA 0 ac3+5
1a2d 38cb   LDA 3 cb
1a2e e522   SUB 3 0 szc
1a2f e600   ADD 3 0
1a30 0c40   JMS @40
1a31 0022   
1a32 fc00   ADC 3 3
1a33 58cf   STA 3 cf
1a34 fd00   SUB 3 3
1a35 58cb   STA 3 cb
1a36 0441   JMP @41

jms @40 80
1a37 3845   LDA 3 45
1a38 2307   LDA 0 ac3+7
1a39 01f4   JMP pc-c ; 1a2d

jms @40 81
1a3a 3845   LDA 3 45
1a3b 2306   LDA 0 ac3+6
1a3c 01f1   JMP pc-f ; 1a2d

jms @40 84
1a3d 3890   LDA 3 90
1a3e fa0d   MOV# 3 3 snr
1a3f 0441   JMP @41
1a40 fd00   SUB 3 3
1a41 58b0   STA 3 b0
1a42 0441   JMP @41

jms @40 85
1a43 3890   LDA 3 90
1a44 fa0d   MOV# 3 3 snr
1a45 0441   JMP @41
1a46 20b0   LDA 0 b0
1a47 824b   MOV#L 0 0 snc
1a48 0103   JMP pc+3 ; 1a4b
1a49 8100   NEG 0 0
1a4a ac01   ADC 1 1 skp
1a4b ad00   SUB 1 1
1a4c 0c40   JMS @40
1a4d 0028   
1a4e 0441   JMP @41

jms @40 86
1a4f 3890   LDA 3 90
1a50 fa0d   MOV# 3 3 snr
1a51 0441   JMP @41
1a52 38b1   LDA 3 b1
1a53 fa4b   MOV#L 3 3 snc
1a54 fd00   SUB 3 3
1a55 58b1   STA 3 b1
1a56 0441   JMP @41

jms @40 87
1a57 3890   LDA 3 90
1a58 fa0d   MOV# 3 3 snr
1a59 0441   JMP @41
1a5a 20b1   LDA 0 b1
1a5b 01ec   JMP pc-14 ; 1a47

jms @40 8c
1a5c 0c40   JMS @40
1a5d 001e   
1a5e 800d   CMP# 0 0 snr
1a5f 8500   SUB 0 0
1a60 406e   STA 0 6e
1a61 0441   JMP @41

jms @40 07
1a62 2050   LDA 0 50
1a63 ac00   ADC 1 1
1a64 0c40   JMS @40
1a65 0028   

jms @40 19
1a66 ad00   SUB 1 1
1a67 48a2   STA 1 a2
1a68 0936   JMS pc+36 ; 1a9e
1a69 3846   LDA 3 46
1a6a 2302   LDA 0 ac3+2
1a6b ac00   ADC 1 1
1a6c 0c40   JMS @40
1a6d 0028   
1a6e 8400   ADC 0 0
1a6f 40c6   STA 0 c6
1a70 d500   SUB 2 2
1a71 5079   STA 2 79
1a72 3846   LDA 3 46
1a73 2b01   LDA 1 ac3+1
1a74 48b5   STA 1 b5
1a75 0c40   JMS @40
1a76 002c   
1a77 d500   SUB 2 2
1a78 3846   LDA 3 46
1a79 2b0b   LDA 1 ac3+b
1a7a 48b6   STA 1 b6
1a7b 0c40   JMS @40
1a7c 002d   
1a7d 0921   JMS pc+21 ; 1a9e
1a7e 3854   LDA 3 54
1a7f e50c   SUB# 3 0 szr
1a80 0104   JMP pc+4 ; 1a84
1a81 0c40   JMS @40
1a82 0040   
1a83 0112   JMP pc+12 ; 1a95
1a84 3855   LDA 3 55
1a85 e50c   SUB# 3 0 szr
1a86 0105   JMP pc+5 ; 1a8b
1a87 0c40   JMS @40
1a88 0031   
1a89 10a2   ISZ a2
1a8a 01de   JMP pc-22 ; 1a68
1a8b 4110   STA 0 pc+10 ; 1a9b
1a8c 0c40   JMS @40
1a8d 0003   
1a8e 510e   STA 2 pc+e ; 1a9c
1a8f 210c   LDA 0 pc+c ; 1a9b
1a90 0c40   JMS @40
1a91 000b   
1a92 0c40   JMS @40
1a93 002a   
1a94 3108   LDA 2 pc+8 ; 1a9c
1a95 0c40   JMS @40
1a96 0030   
1a97 0c40   JMS @40
1a98 0029   
1a99 10a2   ISZ a2
1a9a 01e3   JMP pc-1d ; 1a7d
1a9b 0038   JMP 38
1a9c 0072   JMP 72
1a9d 1a69   DSZ ac2+69
1a9e 59ff   STA 3 pc-1 ; 1a9d
1a9f 28a2   LDA 1 a2
1aa0 0c43   JMS @43
1aa1 0053   
1aa2 20fb   LDA 0 fb
1aa3 3856   LDA 3 56
1aa4 9d0d   SUB# 0 3 snr
1aa5 0441   JMP @41
1aa6 05f7   JMP @pc-9 ; @1a9d

; some form of data
1aa7 0000   JMP 0
1aa8 1218   ISZ ac2+18
1aa9 1217   ISZ ac2+17
1aaa 1018   ISZ 18
1aab 1219   ISZ ac2+19
1aac 1016   ISZ 16
1aad 0c14   JMS @14
1aae 1219   ISZ ac2+19
1aaf 1419   ISZ @19
1ab0 0a0b   JMS ac2+b
1ab1 0a10   JMS ac2+10
1ab2 1217   ISZ ac2+17
1ab3 0a13   JMS ac2+13
1ab4 1e1e   DSZ @ac2+1e
1ab5 1319   ISZ ac3+19
1ab6 121b   ISZ ac2+1b
1ab7 1214   ISZ ac2+14
1ab8 121b   ISZ ac2+1b
1ab9 0d17   JMS @pc+17 ; @1ad0
1aba 0f15   JMS @ac3+15
1abb 0c15   JMS @15
1abc 1219   ISZ ac2+19
1abd 1117   ISZ pc+17 ; 1ad4
1abe 181f   DSZ 1f
1abf 1117   ISZ pc+17 ; 1ad6
1ac0 1118   ISZ pc+18 ; 1ad8
1ac1 0f14   JMS @ac3+14
1ac2 130c   ISZ ac3+c
1ac3 131b   ISZ ac3+1b
1ac4 133f   ISZ ac3+3f
1ac5 1369   ISZ ac3+69
1ac6 1394   ISZ ac3-6c
1ac7 1313   ISZ ac3+13
1ac8 13f2   ISZ ac3-e
1ac9 13c8   ISZ ac3-38
1aca 130c   ISZ ac3+c
1acb 130c   ISZ ac3+c
1acc 0a0a   JMS ac2+a
1acd 0909   JMS pc+9 ; 1ad6
1ace 0912   JMS pc+12 ; 1ae0
1acf 0d0d   JMS @pc+d ; @1adc
1ad0 0e0e   JMS @ac2+e
1ad1 0c24   JMS @24
1ad2 1311   ISZ ac3+11
1ad3 1b1b   DSZ ac3+1b
1ad4 0e16   JMS @ac2+16
1ad5 1b1b   DSZ ac3+1b
1ad6 1c10   DSZ @10
1ad7 1c09   DSZ @9
1ad8 1c1c   DSZ @1c
1ad9 1414   ISZ @14
1ada 1b02   DSZ ac3+2
1adb 0e12   JMS @ac2+12
1adc 0000   JMP 0
1add 0000   JMP 0
1ade 0000   JMP 0
1adf 6464   DOBS 0 24
1ae0 6464   DOBS 0 24
1ae1 6464   DOBS 0 24
1ae2 6464   DOBS 0 24
1ae3 6464   DOBS 0 24
1ae4 6464   DOBS 0 24
1ae5 6464   DOBS 0 24
1ae6 6400   DOB 0 0
1ae7 0000   JMP 0
1ae8 1219   ISZ ac2+19
1ae9 1217   ISZ ac2+17
1aea 1017   ISZ 17
1aeb 1219   ISZ ac2+19
1aec 1116   ISZ pc+16 ; 1b02
1aed 0b17   JMS ac3+17
1aee 1219   ISZ ac2+19
1aef 1319   ISZ ac3+19
1af0 090b   JMS pc+b ; 1afb
1af1 0911   JMS pc+11 ; 1b02
1af2 1218   ISZ ac2+18
1af3 0912   JMS pc+12 ; 1b05
1af4 1c1d   DSZ @1d
1af5 121a   ISZ ac2+1a
1af6 121a   ISZ ac2+1a
1af7 1214   ISZ ac2+14
1af8 121a   ISZ ac2+1a
1af9 0e18   JMS @ac2+18
1afa 0f16   JMS @ac3+16
1afb 0b15   JMS ac3+15
1afc 121a   ISZ ac2+1a
1afd 1017   ISZ 17
1afe 1920   DSZ pc+20 ; 1b1e
1aff 1216   ISZ ac2+16
1b00 1119   ISZ pc+19 ; 1b19
1b01 1014   ISZ 14
1b02 130c   ISZ ac3+c
1b03 131b   ISZ ac3+1b
1b04 133f   ISZ ac3+3f
1b05 1369   ISZ ac3+69
1b06 1394   ISZ ac3-6c
1b07 1313   ISZ ac3+13
1b08 13f2   ISZ ac3-e
1b09 13c8   ISZ ac3-38
1b0a 130c   ISZ ac3+c
1b0b 130c   ISZ ac3+c
1b0c 0a0a   JMS ac2+a
1b0d 0a0a   JMS ac2+a
1b0e 0912   JMS pc+12 ; 1b20
1b0f 0d0d   JMS @pc+d ; @1b1c
1b10 0d0d   JMS @pc+d ; @1b1d
1b11 0c24   JMS @24
1b12 1310   ISZ ac3+10
1b13 1c1b   DSZ @1b
1b14 0916   JMS pc+16 ; 1b2a
1b15 1b1b   DSZ ac3+1b
1b16 1c10   DSZ @10
1b17 1c08   DSZ @8
1b18 1c1c   DSZ @1c
1b19 1414   ISZ @14
1b1a 1b02   DSZ ac3+2
1b1b 0e12   JMS @ac2+12
1b1c 0000   JMP 0
1b1d 0000   JMP 0
1b1e 0000   JMP 0
1b1f 6464   DOBS 0 24
1b20 6464   DOBS 0 24
1b21 6464   DOBS 0 24
1b22 6464   DOBS 0 24
1b23 6464   DOBS 0 24
1b24 6464   DOBS 0 24
1b25 6464   DOBS 0 24
1b26 6400   DOB 0 0
1b27 0000   JMP 0
1b28 1218   ISZ ac2+18
1b29 1418   ISZ @18
1b2a 1219   ISZ ac2+19
1b2b 141b   ISZ @1b
1b2c 1217   ISZ ac2+17
1b2d 0d15   JMS @pc+15 ; @1b42
1b2e 131b   ISZ ac3+1b
1b2f 141b   ISZ @1b
1b30 0b0d   JMS ac3+d
1b31 0b13   JMS ac3+13
1b32 141a   ISZ @1a
1b33 0b15   JMS ac3+15
1b34 1f1d   DSZ @ac3+1d
1b35 141a   ISZ @1a
1b36 141b   ISZ @1b
1b37 1417   ISZ @17
1b38 141b   ISZ @1b
1b39 0e18   JMS @ac2+18
1b3a 1116   ISZ pc+16 ; 1b50
1b3b 0e15   JMS @ac2+15
1b3c 151a   ISZ @pc+1a ; @1b56
1b3d 1219   ISZ ac2+19
1b3e 1b21   DSZ ac3+21
1b3f 1319   ISZ ac3+19
1b40 1219   ISZ ac2+19
1b41 1115   ISZ pc+15 ; 1b56
1b42 150e   ISZ @pc+e ; @1b50
1b43 151b   ISZ @pc+1b ; @1b5e
1b44 1540   ISZ @pc+40 ; @1b84
1b45 156a   ISZ @pc+6a ; @1baf
1b46 1596   ISZ @pc-6a ; @1adc
1b47 1515   ISZ @pc+15 ; @1b5c
1b48 15f3   ISZ @pc-d ; @1b3b
1b49 15c9   ISZ @pc-37 ; @1b12
1b4a 150c   ISZ @pc+c ; @1b56
1b4b 150c   ISZ @pc+c ; @1b57
1b4c 0b0b   JMS ac3+b
1b4d 0a0a   JMS ac2+a
1b4e 0a12   JMS ac2+12
1b4f 0e0e   JMS @ac2+e
1b50 0d0d   JMS @pc+d ; @1b5d
1b51 0d24   JMS @pc+24 ; @1b75
1b52 1514   ISZ @pc+14 ; @1b66
1b53 1f1b   DSZ @ac3+1b
1b54 1117   ISZ pc+17 ; 1b6b
1b55 1b1b   DSZ ac3+1b
1b56 1f10   DSZ @ac3+10
1b57 1f0a   DSZ @ac3+a
1b58 1f1c   DSZ @ac3+1c
1b59 1515   ISZ @pc+15 ; @1b6e
1b5a 1b02   DSZ ac3+2
1b5b 0f12   JMS @ac3+12
1b5c 0000   JMP 0
1b5d 0000   JMP 0
1b5e 0000   JMP 0
1b5f 6464   DOBS 0 24
1b60 6464   DOBS 0 24
1b61 6464   DOBS 0 24
1b62 6464   DOBS 0 24
1b63 6464   DOBS 0 24
1b64 6464   DOBS 0 24
1b65 6464   DOBS 0 24
1b66 6400   DOB 0 0
1b67 0000   JMP 0
1b68 2418   LDA 0 @18
1b69 0000   JMP 0
1b6a 0000   JMP 0
1b6b 2414   LDA 0 @14
1b6c 1e24   DSZ @ac2+24
1b6d 2424   LDA 0 @24
1b6e 2420   LDA 0 @20
1b6f 241f   LDA 0 @1f
1b70 0000   JMP 0
1b71 241e   LDA 0 @1e
1b72 1212   ISZ ac2+12
1b73 2424   LDA 0 @24
1b74 241f   LDA 0 @1f
1b75 001f   JMP 1f
1b76 0000   JMP 0
1b77 1b1b   DSZ ac3+1b
1b78 1e19   DSZ @ac2+19
1b79 110a   ISZ pc+a ; 1b83
1b7a 2417   LDA 0 @17
1b7b 111b   ISZ pc+1b ; 1b96
1b7c 1114   ISZ pc+14 ; 1b90
1b7d 0000   JMP 0
1b7e 1e0c   DSZ @ac2+c
1b7f 0000   JMP 0
1b80 1124   ISZ pc+24 ; 1ba4
1b81 0000   JMP 0
1b82 170f   ISZ @ac3+f
1b83 170f   ISZ @ac3+f
1b84 170f   ISZ @ac3+f
1b85 170f   ISZ @ac3+f
1b86 170f   ISZ @ac3+f
1b87 170f   ISZ @ac3+f
1b88 170f   ISZ @ac3+f
1b89 170f   ISZ @ac3+f
1b8a 170f   ISZ @ac3+f
1b8b 170f   ISZ @ac3+f
1b8c 120a   ISZ ac2+a
1b8d 0a0a   JMS ac2+a
1b8e 0a12   JMS ac2+12
1b8f 2422   LDA 0 @22
1b90 2424   LDA 0 @24
1b91 2403   LDA 0 @3
1b92 1724   ISZ @ac3+24
1b93 0909   JMS pc+9 ; 1b9c
1b94 0909   JMS pc+9 ; 1b9d
1b95 0f0f   JMS @ac3+f
1b96 0f0f   JMS @ac3+f
1b97 0f0f   JMS @ac3+f
1b98 0f0f   JMS @ac3+f
1b99 0f0f   JMS @ac3+f
1b9a 1f18   DSZ @ac3+18
1b9b 1412   ISZ @12
1b9c 0000   JMP 0
1b9d 0000   JMP 0
1b9e 0000   JMP 0
1b9f 6464   DOBS 0 24
1ba0 6464   DOBS 0 24
1ba1 6464   DOBS 0 24
1ba2 6464   DOBS 0 24
1ba3 6362   DIBS 0 22
1ba4 6261   DOAS 0 21
1ba5 6160   DIAS 0 20
1ba6 6000   NIO 0 0

; some form of data
1ba7 8e05   ADD 0 1 snr
1ba8 0907   JMS pc+7 ; 1baf
1ba9 0842   JMS 42
1baa 0f12   JMS @ac3+12
1bab 8401   ADC 0 0 skp
1bac 0e47   JMS @ac2+47
1bad 0512   JMP @pc+12 ; @1bbf
1bae 4f15   STA 1 @ac3+15
1baf 1384   ISZ ac3-7c
1bb0 0553   JMP @pc+53 ; @1c03
1bb1 0312   JMP ac3+12
1bb2 0902   JMS pc+2 ; 1bb4
1bb3 058c   JMP @pc-74 ; @1b3f
1bb4 0507   JMP @pc+7 ; @1bbb
1bb5 4913   STA 1 pc+13 ; 1bc8
1bb6 4c01   STA 1 @1
1bb7 1497   ISZ @97
1bb8 0113   JMP pc+13 ; 1bcb
1bb9 0849   JMS 49
1bba 0e07   JMS @ac2+7
1bbb 540f   STA 2 @f
1bbc 0e84   JMS @ac2-7c
1bbd 050d   JMP @pc+d ; @1bca
1bbe 4f43   STA 1 @ac3+43
1bbf 1201   ISZ ac2+1
1bc0 1484   ISZ @84
1bc1 054d   JMP @pc+4d ; @1c0e
1bc2 0f03   JMS @ac3+3
1bc3 5201   STA 2 ac2+1
1bc4 4384   STA 0 ac3-7c
1bc5 050d   JMP @pc+d ; @1bd2
1bc6 4f0e   STA 1 @ac3+e
1bc7 5314   STA 2 ac3+14
1bc8 1201   ISZ ac2+1
1bc9 148e   ISZ @8e
1bca 0517   JMP @pc+17 ; @1be1
1bcb 1350   ISZ ac3+50
1bcc 0150   JMP pc+50 ; 1c1c
1bcd 0512   JMP @pc+12 ; @1bdf
1bce 9705   AND 0 2 snr
1bcf 0110   JMP pc+10 ; 1bdf
1bd0 4f0e   STA 1 @ac3+e
1bd1 8513   SUB 0 0 snc
1bd2 5401   STA 2 @1
1bd3 024c   JMP ac2+4c
1bd4 0913   JMS pc+13 ; 1be7
1bd5 0884   JMS 84
1bd6 0513   JMP @pc+13 ; @1be9
1bd7 5005   STA 2 5
1bd8 1241   ISZ ac2+41
1bd9 8819   CMP# 0 1 skp
1bda 104e   ISZ 4e
1bdb 0f92   JMS @ac3-6e
1bdc 0550   JMP @pc+50 ; @1c2c
1bdd 1502   ISZ @pc+2 ; @1bdf
1bde 4c09   STA 1 @9
1bdf 9705   AND 0 2 snr
1be0 040e   JMP @e
1be1 0513   JMP @pc+13 ; @1bf4
1be2 4488   STA 0 @88
1be3 050c   JMP @pc+c ; @1bef
1be4 0943   JMS pc+43 ; 1c27
1be5 0f10   JMS @ac3+10
1be6 5405   STA 2 @5
1be7 1281   ISZ ac2-7f
1be8 1353   ISZ ac3+53
1be9 0f43   JMS @ac3+43
1bea 0941   JMS pc+41 ; 1c2b
1beb 1485   ISZ @85
1bec 0e46   JMS @ac2+46
1bed 1201   ISZ ac2+1
1bee 0e43   JMS @ac2+43
1bef 0809   JMS 9
1bf0 1305   ISZ ac3+5
1bf1 9001   CMP 0 2 skp
1bf2 1201   ISZ ac2+1
1bf3 5412   STA 2 @12
1bf4 0f0f   JMS @ac3+f
1bf5 108d   ISZ 8d
1bf6 010e   JMP pc+e ; 1c04
1bf7 4107   STA 0 pc+7 ; 1bfe
1bf8 9001   CMP 0 2 skp
1bf9 1254   ISZ ac2+54
1bfa 0903   JMS pc+3 ; 1bfd
1bfb 4950   STA 1 pc+50 ; 1c4b
1bfc 0190   JMP pc-70 ; 1b8c
1bfd 0112   JMP pc+12 ; 1c0f
1bfe 5409   STA 2 @9
1bff 0355   JMP ac3+55
1c00 4c01   STA 1 @1
1c01 8d01   SUB 0 1 skp
1c02 0741   JMP @ac3+41
1c03 5a09   STA 3 ac2+9
1c04 0e05   JMS @ac2+5
1c05 9305   INC 0 2 snr
1c06 0352   JMP ac3+52
1c07 0554   JMP @pc+54 ; @1c5b
1c08 0112   JMP pc+12 ; 1c1a
1c09 8113   NEG 0 0 snc
1c0a 5412   STA 2 @12
1c0b 0f4e   JMS @ac3+4e
1c0c 0190   JMP pc-70 ; 1b9c
1c0d 1205   ISZ ac2+5
1c0e 1353   ISZ ac3+53
1c0f 1512   ISZ @pc+12 ; @1c21
1c10 9005   CMP 0 2 snr
1c11 5209   STA 2 ac2+9
1c12 1008   ISZ 8
1c13 4512   STA 0 @pc+12 ; @1c25
1c14 8115   NEG 0 0 snr
1c15 4409   STA 0 @9
1c16 540f   STA 2 @f
1c17 5285   STA 2 ac2-7b
1c18 030f   JMP ac3+f
1c19 0e4f   JMS @ac2+4f
1c1a 4d19   STA 1 @pc+19 ; @1c33
1c1b 8503   SUB 0 0 snc
1c1c 0f4e   JMS @ac3+4e
1c1d 0f0d   JMS @ac3+d
1c1e 4903   STA 1 pc+3 ; 1c21
1c1f 8503   SUB 0 0 snc
1c20 0f0e   JMS @ac3+e
1c21 4f4d   STA 1 @ac3+4d
1c22 0913   JMS pc+13 ; 1c35
1c23 9305   INC 0 2 snr
1c24 1041   ISZ 41
1c25 5201   STA 2 ac2+1
1c26 8d15   SUB 0 1 snr
1c27 4e09   STA 1 @ac2+9
1c28 0349   JMP ac3+49
1c29 5001   STA 2 1
1c2a 0c90   JMS @90
1c2b 120f   ISZ ac2+f
1c2c 4712   STA 0 @ac3+12
1c2d 010d   JMP pc+d ; 1c3a
1c2e 9012   CMP 0 2 szc
1c2f 0f02   JMS @ac3+2
1c30 4c05   STA 1 @5
1c31 0d92   JMS @pc-6e ; @1bc3
1c32 0550   JMP @pc+50 ; @1c82
1c33 0f12   JMS @ac3+12
1c34 1484   ISZ @84
1c35 0910   JMS pc+10 ; 1c45
1c36 4c0f   STA 1 @f
1c37 4d01   STA 1 @pc+1 ; @1c38
1c38 1490   ISZ @90
1c39 120f   ISZ ac2+f
1c3a 1354   ISZ ac3+54
1c3b 0954   JMS pc+54 ; 1c8f
1c3c 1514   ISZ @pc+14 ; @1c50
1c3d 8301   INC 0 0 skp
1c3e 0e59   JMS @ac2+59
1c3f 0f0e   JMS @ac3+e
1c40 9012   CMP 0 2 szc
1c41 0f14   JMS @ac3+14
1c42 4513   STA 0 @pc+13 ; @1c55
1c43 5401   STA 2 @1
1c44 0e14   JMS @ac2+14
1c45 8301   INC 0 0 skp
1c46 1408   ISZ @8
1c47 4f4c   STA 1 @ac3+4c
1c48 8a15   MOV 0 1 snr
1c49 5209   STA 2 ac2+9
1c4a 1344   ISZ ac3+44
1c4b 0903   JMS pc+3 ; 1c4e
1c4c 5481   STA 2 @81
1c4d 1353   ISZ ac3+53
1c4e 050d   JMP @pc+d ; @1c5b
1c4f 420c   STA 0 ac2+c
1c50 9005   CMP 0 2 snr
1c51 0e0e   JMS @ac2+e
1c52 5319   STA 2 ac3+19
1c53 0c56   JMS @56
1c54 9305   INC 0 2 snr
1c55 034f   JMP ac3+4f
1c56 0e04   JMS @ac2+4
1c57 9012   CMP 0 2 szc
1c58 0f06   JMS @ac3+6
1c59 4914   STA 1 pc+14 ; 1c6d
1c5a 8104   NEG 0 0 szr
1c5b 4d09   STA 1 @pc+9 ; @1c64
1c5c 0e49   JMS @ac2+49
1c5d 1354   ISZ ac3+54
1c5e 1201   ISZ ac2+1
1c5f 8516   SUB 0 0 sez
1c60 054e   JMP @pc+4e ; @1cae
1c61 090e   JMS pc+e ; 1c6f
1c62 0783   JMP @ac3-7d
1c63 1205   ISZ ac2+5
1c64 0449   JMP @49
1c65 1483   ISZ @83
1c66 1209   ISZ ac2+9
1c67 0d49   JMS @pc+49 ; @1cb0
1c68 4e90   STA 1 @ac2-70
1c69 120f   ISZ ac2+f
1c6a 4605   STA 0 @ac2+5
1c6b 1353   ISZ ac3+53
1c6c 0990   JMS pc-70 ; 1bfc
1c6d 120f   ISZ ac2+f
1c6e 4605   STA 0 @ac2+5
1c6f 1353   ISZ ac3+53
1c70 0f90   JMS @ac3-70
1c71 0f4c   JMS @ac3+4c
1c72 0914   JMS pc+14 ; 1c86
1c73 4943   STA 1 pc+43 ; 1cb6
1c74 0190   JMP pc-70 ; 1c04
1c75 0f0c   JMS @ac3+c
1c76 4954   STA 1 pc+54 ; 1cca
1c77 0943   JMS pc+43 ; 1cba
1c78 098d   JMS pc-73 ; 1c05
1c79 0514   JMP @pc+14 ; @1c8d
1c7a 084f   JMS 4f
1c7b 0449   JMP @49
1c7c 1390   ISZ ac3-70
1c7d 1205   ISZ ac2+5
1c7e 1342   ISZ ac3+42
1c7f 1954   DSZ pc+54 ; 1cd3
1c80 0552   JMP @pc+52 ; @1cd2
1c81 0985   JMS pc-7b ; 1c06
1c82 1601   ISZ @ac2+1
1c83 0e47   JMS @ac2+47
1c84 0597   JMP @pc-69 ; @1c1b
1c85 0513   JMP @pc+13 ; @1c98
1c86 1443   ISZ @43
1c87 0805   JMS 5
1c88 1354   ISZ ac3+54
1c89 8d09   SUB# 0 1 skp
1c8a 0e49   JMS @ac2+49
1c8b 1354   ISZ ac3+54
1c8c 9001   CMP 0 2 skp
1c8d 0c49   JMS @49
1c8e 5301   STA 2 ac3+1
1c8f 0488   JMP @88
1c90 0f13   JMS @ac3+13
1c91 5009   STA 2 9
1c92 5401   STA 2 @1
1c93 9412   ADC 0 2 szc
1c94 0501   JMP @pc+1 ; @1c95
1c95 1355   ISZ ac3+55
1c96 1282   ISZ ac2-7e
1c97 010c   JMP pc+c ; 1ca3
1c98 410e   STA 0 pc+e ; 1ca6
1c99 0381   JMP ac3-7f
1c9a 0d05   JMS @pc+5 ; @1c9f
1c9b 1249   ISZ ac2+49
1c9c 4301   STA 0 ac3+1
1c9d 0e90   JMS @ac2-70
1c9e 0113   JMP pc+13 ; 1cb1
1c9f 5305   STA 2 ac3+5
1ca0 0e47   JMS @ac2+47
1ca1 0512   JMP @pc+12 ; @1cb3
1ca2 8509   SUB# 0 0 skp
1ca3 5305   STA 2 ac3+5
1ca4 0e48   JMS @ac2+48
1ca5 0f17   JMS @ac3+17
1ca6 4512   STA 0 @pc+12 ; @1cb8
1ca7 9008   CMP# 0 2
1ca8 090c   JMS pc+c ; 1cb4
1ca9 4144   STA 0 pc+44 ; 1ced
1caa 050c   JMP @pc+c ; @1cb6
1cab 5008   STA 2 8
1cac 0901   JMS pc+1 ; 1cad
1cad 8d01   SUB 0 1 skp
1cae 1408   ISZ @8
1caf 454d   STA 0 @pc+4d ; @1cfc
1cb0 0114   JMP pc+14 ; 1cc4
1cb1 4943   STA 1 pc+43 ; 1cf4
1cb2 8d01   SUB 0 1 skp
1cb3 1353   ISZ ac3+53
1cb4 0143   JMP pc+43 ; 1cf7
1cb5 0815   JMS 15
1cb6 5388   STA 2 ac3-78
1cb7 0f0c   JMS @ac3+c
1cb8 0c19   JMS @19
1cb9 570f   STA 2 @ac3+f
1cba 0f04   JMS @ac3+4
1cbb 8115   NEG 0 0 snr
1cbc 540f   STA 2 @f
1cbd 4d0f   STA 1 @pc+f ; @1ccc
1cbe 4209   STA 0 ac2+9
1cbf 0c81   JMS @81
1cc0 1554   ISZ @pc+54 ; @1d14
1cc1 0f4d   JMS @ac3+4d
1cc2 0114   JMP pc+14 ; 1cd6
1cc3 4903   STA 1 pc+3 ; 1cc6
1cc4 8212   MOV 0 0 szc
1cc5 0904   JMS pc+4 ; 1cc9
1cc6 0547   JMP @pc+47 ; @1d0d
1cc7 1282   ISZ ac2-7e
1cc8 0f15   JMS @ac3+15
1cc9 4c05   STA 1 @5
1cca 5601   STA 2 @ac2+1
1ccb 8212   MOV 0 0 szc
1ccc 0904   JMS pc+4 ; 1cd0
1ccd 0513   JMP @pc+13 ; @1ce0
1cce 4d8f   STA 1 @pc-71 ; @1c5d
1ccf 1209   ISZ ac2+9
1cd0 0749   JMP @ac3+49
1cd1 4e01   STA 1 @ac2+1
1cd2 8d01   SUB 0 1 skp
1cd3 1213   ISZ ac2+13
1cd4 084d   JMS 4d
1cd5 0193   JMP pc-6d ; 1c68
1cd6 0f15   JMS @ac3+15
1cd7 1408   ISZ @8
1cd8 4501   STA 0 @pc+1 ; @1cd9
1cd9 8801   CMP 0 1 skp
1cda 1214   ISZ ac2+14
1cdb 460f   STA 0 @ac2+f
1cdc 1204   ISZ ac2+4
1cdd 8215   MOV 0 0 snr
1cde 1349   ISZ ac3+49
1cdf 4e05   STA 1 @ac2+5
1ce0 138f   ISZ ac3-71
1ce1 0646   JMP @ac2+46
1ce2 0903   JMS pc+3 ; 1ce5
1ce3 058f   JMP @pc-71 ; @1c72
1ce4 0646   JMP @ac2+46
1ce5 0943   JMS pc+43 ; 1d28
1ce6 0983   JMS pc-7d ; 1c69
1ce7 0f0e   JMS @ac3+e
1ce8 4e05   STA 1 @ac2+5
1ce9 0314   JMP ac3+14
1cea 4943   STA 1 pc+43 ; 1d2d
1ceb 1514   ISZ @pc+14 ; @1cff
1cec ff00   AND 3 3
1ced 0000   JMP 0
1cee 0000   JMP 0
1cef 0000   JMP 0
1cf0 0000   JMP 0
1cf1 0000   JMP 0
1cf2 0000   JMP 0
1cf3 0000   JMP 0
1cf4 0000   JMP 0
1cf5 0000   JMP 0
1cf6 0000   JMP 0
1cf7 0000   JMP 0
1cf8 0000   JMP 0
1cf9 0000   JMP 0
1cfa 0000   JMP 0
1cfb 0000   JMP 0
1cfc 0000   JMP 0
1cfd 0000   JMP 0
1cfe 0000   JMP 0
1cff 0000   JMP 0
1d00 0000   JMP 0
1d01 0000   JMP 0
1d02 0000   JMP 0
1d03 0000   JMP 0
1d04 0000   JMP 0
1d05 0000   JMP 0
1d06 0000   JMP 0
1d07 0000   JMP 0
1d08 0000   JMP 0
1d09 0000   JMP 0
1d0a 0000   JMP 0
1d0b 0000   JMP 0
1d0c 0000   JMP 0
1d0d 0000   JMP 0
1d0e 0000   JMP 0
1d0f 0000   JMP 0
1d10 0000   JMP 0
1d11 0000   JMP 0
1d12 0000   JMP 0
1d13 0000   JMP 0
1d14 0000   JMP 0
1d15 0000   JMP 0
1d16 0000   JMP 0
1d17 0000   JMP 0
1d18 0000   JMP 0
1d19 0000   JMP 0
1d1a 0000   JMP 0
1d1b 0000   JMP 0
1d1c 0000   JMP 0
1d1d 0000   JMP 0
1d1e 0000   JMP 0
1d1f 0000   JMP 0
1d20 0000   JMP 0
1d21 0000   JMP 0
1d22 0000   JMP 0
1d23 0000   JMP 0
1d24 0000   JMP 0
1d25 0000   JMP 0
1d26 0000   JMP 0
1d27 0000   JMP 0
1d28 0000   JMP 0
1d29 0000   JMP 0
1d2a 0000   JMP 0
1d2b 0000   JMP 0
1d2c 0000   JMP 0
1d2d 0000   JMP 0
1d2e 0000   JMP 0
1d2f 0000   JMP 0
1d30 0000   JMP 0
1d31 0000   JMP 0
1d32 0000   JMP 0
1d33 0000   JMP 0
1d34 0000   JMP 0
1d35 0000   JMP 0
1d36 0000   JMP 0
1d37 0000   JMP 0
1d38 0000   JMP 0
1d39 0000   JMP 0
1d3a 0000   JMP 0
1d3b 0000   JMP 0
1d3c 0000   JMP 0
1d3d 0000   JMP 0
1d3e 0000   JMP 0
1d3f 0000   JMP 0
1d40 0000   JMP 0
1d41 0000   JMP 0
1d42 0000   JMP 0
1d43 0000   JMP 0
1d44 0000   JMP 0
1d45 0000   JMP 0
1d46 0000   JMP 0
1d47 0000   JMP 0
1d48 0000   JMP 0
1d49 0000   JMP 0
1d4a 0000   JMP 0
1d4b 0000   JMP 0
1d4c 0000   JMP 0
1d4d 0000   JMP 0
1d4e 0000   JMP 0
1d4f 0000   JMP 0
1d50 0000   JMP 0
1d51 0000   JMP 0
1d52 0000   JMP 0
1d53 0000   JMP 0
1d54 0000   JMP 0
1d55 0000   JMP 0
1d56 0000   JMP 0
1d57 0000   JMP 0
1d58 0000   JMP 0
1d59 0000   JMP 0
1d5a 0000   JMP 0
1d5b 0000   JMP 0
1d5c 0000   JMP 0
1d5d 0000   JMP 0
1d5e 0000   JMP 0
1d5f 0000   JMP 0
1d60 0000   JMP 0
1d61 0000   JMP 0
1d62 0000   JMP 0
1d63 0000   JMP 0
1d64 0000   JMP 0
1d65 0000   JMP 0
1d66 0000   JMP 0
1d67 0000   JMP 0
1d68 0000   JMP 0
1d69 0000   JMP 0
1d6a 0000   JMP 0
1d6b 0000   JMP 0
1d6c 0000   JMP 0
1d6d 0000   JMP 0
1d6e 0000   JMP 0
1d6f 0000   JMP 0
1d70 0000   JMP 0
1d71 0000   JMP 0
1d72 0000   JMP 0
1d73 0000   JMP 0
1d74 0000   JMP 0
1d75 0000   JMP 0
1d76 0000   JMP 0
1d77 0000   JMP 0
1d78 0000   JMP 0
1d79 0000   JMP 0
1d7a 0000   JMP 0
1d7b 0000   JMP 0
1d7c 0000   JMP 0
1d7d 0000   JMP 0
1d7e 0000   JMP 0
1d7f 0000   JMP 0
1d80 0000   JMP 0
1d81 0000   JMP 0
1d82 0000   JMP 0
1d83 0000   JMP 0
1d84 0000   JMP 0
1d85 0000   JMP 0
1d86 0000   JMP 0
1d87 0000   JMP 0
1d88 0000   JMP 0
1d89 0000   JMP 0
1d8a 0000   JMP 0
1d8b 0000   JMP 0
1d8c 0000   JMP 0
1d8d 0000   JMP 0
1d8e 0000   JMP 0
1d8f 0000   JMP 0
1d90 0000   JMP 0
1d91 0000   JMP 0
1d92 0000   JMP 0
1d93 0000   JMP 0
1d94 0000   JMP 0
1d95 0000   JMP 0
1d96 0000   JMP 0
1d97 0000   JMP 0
1d98 0000   JMP 0
1d99 0000   JMP 0
1d9a 0000   JMP 0
1d9b 0000   JMP 0
1d9c 0000   JMP 0
1d9d 0000   JMP 0
1d9e 0000   JMP 0
1d9f 0000   JMP 0
1da0 0000   JMP 0
1da1 0000   JMP 0
1da2 0000   JMP 0
1da3 0000   JMP 0
1da4 0000   JMP 0
1da5 0000   JMP 0
1da6 0000   JMP 0
1da7 0000   JMP 0
1da8 0000   JMP 0
1da9 0000   JMP 0
1daa 0000   JMP 0
1dab 0000   JMP 0
1dac 0000   JMP 0
1dad 0000   JMP 0
1dae 0000   JMP 0
1daf 0000   JMP 0
1db0 0000   JMP 0
1db1 0000   JMP 0
1db2 0000   JMP 0
1db3 0000   JMP 0
1db4 0000   JMP 0
1db5 0000   JMP 0
1db6 0000   JMP 0
1db7 0000   JMP 0
1db8 0000   JMP 0
1db9 0000   JMP 0
1dba 0000   JMP 0
1dbb 0000   JMP 0
1dbc 0000   JMP 0
1dbd 0000   JMP 0
1dbe 0000   JMP 0
1dbf 0000   JMP 0
1dc0 0000   JMP 0
1dc1 0000   JMP 0
1dc2 0000   JMP 0
1dc3 0000   JMP 0
1dc4 0000   JMP 0
1dc5 0000   JMP 0
1dc6 0000   JMP 0
1dc7 0000   JMP 0
1dc8 0000   JMP 0
1dc9 0000   JMP 0
1dca 0000   JMP 0
1dcb 0000   JMP 0
1dcc 0000   JMP 0
1dcd 0000   JMP 0
1dce 0000   JMP 0
1dcf 0000   JMP 0
1dd0 0000   JMP 0
1dd1 0000   JMP 0
1dd2 0000   JMP 0
1dd3 0000   JMP 0
1dd4 0000   JMP 0
1dd5 0000   JMP 0
1dd6 0000   JMP 0
1dd7 0000   JMP 0
; looks like font data
1dd8 2e40   LDA 1 @ac2+40
1dd9 dba8   INC#R 2 3
1dda 88dc   CMP#S 0 1 szr
1ddb 84df   ADC#S 0 0 sbn
1ddc 98dd   CMP#S 0 3 snr
1ddd 9ae9   MOV#S 0 3 skp
1dde 8680   ADDR 0 0
1ddf 86d5   ADDS 0 0 snr
1de0 69c8   DIAP 1 8
1de1 dd81   SUBR 2 3 skp
1de2 d569   SUB#L 2 2 skp
1de3 c8d5   CMPS 2 1 snr
1de4 69c8   DIAP 1 8
1de5 d569   SUB#L 2 2 skp
1de6 c8d5   CMPS 2 1 snr
1de7 69c8   DIAP 1 8
1de8 c8dc   CMP#S 2 1 szr
1de9 84df   ADC#S 0 0 sbn
1dea 94dd   ADC#S 0 2 snr
1deb bee9   ADD#S 1 3 skp
1dec 9280   MOVR 0 2
1ded 86d2   ADDS 0 0 szc
1dee b086   CMPR 1 2 sez
1def dc82   ADCR 2 3 szc
1df0 d7c8   AND#S 2 2
1df1 051e   JMP @pc+1e ; @1e0f
1df2 1e28   DSZ @ac2+28
1df3 10c7   ISZ c7
1df4 c7dc   AND#S 2 0 szr
1df5 84df   ADC#S 0 0 sbn
1df6 a8dd   CMP#S 1 1 snr
1df7 8281   MOVR 0 0 skp
1df8 e209   MOV# 3 0 skp
1df9 0edc   JMS @ac2-24
1dfa 82df   MOV#S 0 0 sbn
1dfb 92dd   MOV#S 0 2 snr
1dfc 96fe   ADD#S 0 2 sez
1dfd 8589   SUB#R 0 0 skp
1dfe d2a4   MOVR 2 2 szr
1dff 83e2   INCS 0 0 szc
1e00 140c   ISZ @c
1e01 dc84   ADCR 2 3 szr
1e02 dfa8   AND#R 2 3
1e03 dd9a   SUB#R 2 3 szc
1e04 81d2   NEGS 0 0 szc
1e05 b086   CMPR 1 2 sez
1e06 e20a   MOV# 3 0 szc
1e07 08dc   JMS dc
1e08 81df   NEG#S 0 0 sbn
1e09 94dd   ADC#S 0 2 snr
1e0a a0e2   CMPS 1 0 szc
1e0b 040d   JMP @d
1e0c 2102   LDA 0 pc+2 ; 1e0e
1e0d 2428   LDA 0 @28
1e0e c0dc   CMP#S 2 0 szr
1e0f 8427   ADC 0 0 sbn
1e10 c0dc   CMP#S 2 0 szr
1e11 82e2   MOVS 0 0 szc
1e12 0713   JMP @ac3+13
1e13 dc81   ADCR 2 3 skp
1e14 df8e   AND#R 2 3 sez
1e15 dda6   SUBR 2 3 sez
1e16 d7c8   AND#S 2 2
1e17 66c8   DOCP 0 8
1e18 df92   ANDR 2 3 szc
1e19 dd94   SUBR 2 3 szr
1e1a fe85   ADDR 3 3 snr
1e1b 82e2   MOVS 0 0 szc
1e1c 5848   STA 3 48
1e1d dc81   ADCR 2 3 skp
1e1e df94   ANDR 2 3 szr
1e1f dd98   SUB#R 2 3
1e20 11df   ISZ pc-21 ; 1dff
1e21 90dd   CMP#S 0 2 snr
1e22 92fd   MOV#S 0 2 snr
1e23 2bfd   LDA 1 ac3-3
1e24 1dfd   DSZ @pc-3 ; @1e21
1e25 29fd   LDA 1 pc-3 ; 1e22
1e26 0bfd   JMS ac3-3
1e27 25c0   LDA 0 @pc-40 ; @1de7
1e28 fac0   MOVS 3 3
1e29 c0df   CMP#S 2 0 sbn
1e2a 94dd   ADC#S 0 2 snr
1e2b 9603   ADD 0 2 snc
1e2c df90   ANDR 2 3
1e2d dd90   SUBR 2 3
1e2e fd27   SUB 3 3 sbn
1e2f fd27   SUB 3 3 sbn
1e30 fd1f   SUB# 3 3 sbn
1e31 fd07   SUB 3 3 sbn
1e32 fd13   SUB 3 3 snc
1e33 fd03   SUB 3 3 snc
1e34 fd29   SUB# 3 3 skp
1e35 fd0b   SUB# 3 3 snc
1e36 fd27   SUB 3 3 sbn
1e37 c0df   CMP#S 2 0 sbn
1e38 94dd   ADC#S 0 2 snr
1e39 964c   ADD#L 0 2 szr
1e3a c0fa   CMP#S 2 0 szc
1e3b 12c0   ISZ ac2-40
1e3c 1cc0   DSZ @c0
1e3d 06e3   JMP @ac2-1d
1e3e 83fb   INC#S 0 0 snc
1e3f 4ec7   STA 1 @ac2-39
1e40 e22c   MOV# 3 0 szr
1e41 19dc   DSZ pc-24 ; 1e1d
1e42 82df   MOV#S 0 0 sbn
1e43 98dd   CMP#S 0 3 snr
1e44 9afe   MOV#S 0 3 sez
1e45 8783   ANDR 0 0 snc
1e46 c0c0   CMPS 2 0
1e47 4ec0   STA 1 @ac2-40
1e48 c0dc   CMP#S 2 0 szr
1e49 81df   NEG#S 0 0 sbn
1e4a 8edd   ADD#S 0 1 snr
1e4b 92fe   MOV#S 0 2 sez
1e4c 8583   SUBR 0 0 snc
1e4d e208   MOV# 3 0
1e4e 08dc   JMS dc
1e4f 81df   NEG#S 0 0 sbn
1e50 90dd   CMP#S 0 2 snr
1e51 94e2   ADCS 0 2 szc
1e52 0608   JMP @ac2+8
1e53 dc81   ADCR 2 3 skp
1e54 df8c   AND#R 2 3 szr
1e55 dd8e   SUB#R 2 3 sez
1e56 e20b   MOV# 3 0 snc
1e57 08dc   JMS dc
1e58 82df   MOV#S 0 0 sbn
1e59 96dd   ADD#S 0 2 snr
1e5a 96e2   ADDS 0 2 szc
1e5b 1110   ISZ pc+10 ; 1e6b
1e5c df8e   AND#R 2 3 sez
1e5d dda4   SUBR 2 3 szr
1e5e d766   ANDL 2 2 sez
1e5f c8df   CMP#S 2 1 sbn
1e60 94dd   ADC#S 0 2 snr
1e61 97fe   AND#S 0 2 sez
1e62 8582   SUBR 0 0 szc
1e63 e205   MOV 3 0 snr
1e64 09e3   JMS pc-1d ; 1e47
1e65 85fb   SUB#S 0 0 snc
1e66 5ae3   STA 3 ac2-1d
1e67 85fb   SUB#S 0 0 snc
1e68 e2ff   MOV#S 3 0 sbn
1e69 4c3a   STA 1 @3a
1e6a 3638   LDA 2 @ac2+38
1e6b c7c7   ANDS 2 0 sbn
1e6c e204   MOV 3 0 szr
1e6d 0d21   JMS @pc+21 ; @1e8e
1e6e 0224   JMP ac2+24
1e6f 28c0   LDA 1 c0
1e70 dc84   ADCR 2 3 szr
1e71 27c0   LDA 0 @ac3-40
1e72 dc82   ADCR 2 3 szc
1e73 e207   MOV 3 0 sbn
1e74 13dc   ISZ ac3-24
1e75 81df   NEG#S 0 0 sbn
1e76 8edd   ADD#S 0 1 snr
1e77 a6d7   ADDS 1 0 sbn
1e78 c866   CMPL 2 1 sez
1e79 c8df   CMP#S 2 1 sbn
1e7a 92dd   MOV#S 0 2 snr
1e7b 94fe   ADC#S 0 2 sez
1e7c 8582   SUBR 0 0 szc
1e7d e2ff   MOV#S 3 0 sbn
1e7e 104c   ISZ 4c
1e7f c0e3   CMPS 2 0 snc
1e80 8121   NEG 0 0 skp
1e81 03fb   JMP ac3-5
1e82 55fb   STA 2 @pc-5 ; @1e7d
1e83 e2ff   MOV#S 3 0 sbn
1e84 c8df   CMP#S 2 1 sbn
1e85 94dd   ADC#S 0 2 snr
1e86 97e2   ANDS 0 2 szc
1e87 1213   ISZ ac2+13
1e88 dc81   ADCR 2 3 skp
1e89 dfa4   ANDR 2 3 szr
1e8a ddb6   SUBR 2 3 sez
1e8b d766   ANDL 2 2 sez
1e8c fdca   SUB#S 3 3 szc
1e8d dfac   AND#R 2 3 szr
1e8e ddae   SUB#R 2 3 sez
1e8f fe85   ADDR 3 3 snr
1e90 83e2   INCS 0 0 szc
1e91 1e12   DSZ @ac2+12
1e92 dc81   ADCR 2 3 skp
1e93 df9c   AND#R 2 3 szr
1e94 dd9a   SUB#R 2 3 szc
1e95 d75d   AND#L 2 2 snr
1e96 c8df   CMP#S 2 1 sbn
1e97 94dd   ADC#S 0 2 snr
1e98 96fe   ADD#S 0 2 sez
1e99 8781   ANDR 0 0 skp
1e9a e20d   MOV# 3 0 snr
1e9b 12dc   ISZ ac2-24
1e9c 81df   NEG#S 0 0 sbn
1e9d 92dd   MOV#S 0 2 snr
1e9e acd7   ADCS 1 1 sbn
1e9f 66c8   DOCP 0 8
1ea0 df98   AND#R 2 3
1ea1 dd9a   SUB#R 2 3 szc
1ea2 fe85   ADDR 3 3 snr
1ea3 82e2   MOVS 0 0 szc
1ea4 0509   JMP @pc+9 ; @1ead
1ea5 e385   INCR 3 0 snr
1ea6 fb5a   INC#L 3 3 szc
1ea7 e385   INCR 3 0 snr
1ea8 fbe2   INCS 3 3 szc
1ea9 0b0f   JMS ac3+f
1eaa dc81   ADCR 2 3 skp
1eab df90   ANDR 2 3
1eac dda2   SUBR 2 3 szc
1ead d766   ANDL 2 2 sez
1eae c8df   CMP#S 2 1 sbn
1eaf 94dd   ADC#S 0 2 snr
1eb0 97e2   ANDS 0 2 szc
1eb1 0813   JMS 13
1eb2 dc81   ADCR 2 3 skp
1eb3 df90   ANDR 2 3
1eb4 dd9a   SUB#R 2 3 szc
1eb5 d7c8   AND#S 2 2
1eb6 66c8   DOCP 0 8
1eb7 df96   ANDR 2 3 sez
1eb8 dd98   SUB#R 2 3
1eb9 fe85   ADDR 3 3 snr
1eba 82e2   MOVS 0 0 szc
1ebb 2e47   LDA 1 @ac2+47
1ebc dba8   INC#R 2 3
1ebd 88dc   CMP#S 0 1 szr
1ebe 84df   ADC#S 0 0 sbn
1ebf 98dd   CMP#S 0 3 snr
1ec0 8281   MOVR 0 0 skp
1ec1 e986   NEGR 3 1 sez
1ec2 8086   CMPR 0 0 sez
1ec3 d569   SUB#L 2 2 skp
1ec4 c8dd   CMP#S 2 1 snr
1ec5 81d5   NEGS 0 0 snr
1ec6 69c8   DIAP 1 8
1ec7 d569   SUB#L 2 2 skp
1ec8 c8d5   CMPS 2 1 snr
1ec9 69c8   DIAP 1 8
1eca d569   SUB#L 2 2 skp
1ecb c8dc   CMP#S 2 1 szr
1ecc 83df   INC#S 0 0 sbn
1ecd 90dd   CMP#S 0 2 snr
1ece 9a29   MOV# 0 3 skp
1ecf 2503   LDA 0 @pc+3 ; @1ed2
1ed0 090b   JMS pc+b ; 1edb
1ed1 c00d   CMP# 2 0 snr
1ed2 0313   JMP ac3+13
1ed3 25c0   LDA 0 @pc-40 ; @1e93
1ed4 4840   STA 1 40
1ed5 4cc0   STA 1 @c0
1ed6 2112   LDA 0 pc+12 ; 1ee8
1ed7 2828   LDA 1 28
1ed8 2604   LDA 0 @ac2+4
1ed9 2a24   LDA 1 ac2+24
1eda 0e10   JMS @ac2+10
1edb 4cc0   STA 1 @c0
1edc 2103   LDA 0 pc+3 ; 1edf
1edd c055   CMPL 2 0 snr
1ede c0e2   CMPS 2 0 szc
1edf 4d12   STA 1 @pc+12 ; @1ef1
1ee0 dc81   ADCR 2 3 skp
1ee1 df8e   AND#R 2 3 sez
1ee2 dd9c   SUB#R 2 3 szr
1ee3 d766   ANDL 2 2 sez
1ee4 c8df   CMP#S 2 1 sbn
1ee5 94dd   ADC#S 0 2 snr
1ee6 97fe   AND#S 0 2 sez
1ee7 8582   SUBR 0 0 szc
1ee8 e242   MOVL 3 0 szc
1ee9 12dc   ISZ ac2-24
1eea 81df   NEG#S 0 0 sbn
1eeb 8cdd   ADC#S 0 1 snr
1eec 94d7   ADCS 0 2 sbn
1eed 66c8   DOCP 0 8
1eee df90   ANDR 2 3
1eef dd92   SUBR 2 3 szc
1ef0 fe85   ADDR 3 3 snr
1ef1 82e2   MOVS 0 0 szc
1ef2 2c29   LDA 1 @29
1ef3 dc84   ADCR 2 3 szr
1ef4 df98   AND#R 2 3
1ef5 dd9a   SUB#R 2 3 szc
1ef6 e986   NEGR 3 1 sez
1ef7 8086   CMPR 0 0 sez
1ef8 d569   SUB#L 2 2 skp
1ef9 c8dd   CMP#S 2 1 snr
1efa 81d5   NEGS 0 0 snr
1efb 69c8   DIAP 1 8
1efc d569   SUB#L 2 2 skp
1efd c8d5   CMPS 2 1 snr
1efe 69c8   DIAP 1 8
1eff d569   SUB#L 2 2 skp
1f00 c8c8   CMP#S 2 1
1f01 dc84   ADCR 2 3 szr
1f02 dfa8   AND#R 2 3
1f03 dd9a   SUB#R 2 3 szc
1f04 81e9   NEG#S 0 0 skp
1f05 9280   MOVR 0 2
1f06 92e2   MOVS 0 2 szc
1f07 ff66   ANDL 3 3 sez
1f08 c8df   CMP#S 2 1 sbn
1f09 94dd   ADC#S 0 2 snr
1f0a 97fe   AND#S 0 2 sez
1f0b 8582   SUBR 0 0 szc
1f0c e242   MOVL 3 0 szc
1f0d 12dc   ISZ ac2-24
1f0e 81df   NEG#S 0 0 sbn
1f0f 8cdd   ADC#S 0 1 snr
1f10 94d7   ADCS 0 2 sbn
1f11 66c8   DOCP 0 8
1f12 df90   ANDR 2 3
1f13 dd92   SUBR 2 3 szc
1f14 fe85   ADDR 3 3 snr
1f15 82e2   MOVS 0 0 szc
1f16 ffe3   ANDS 3 3 snc
1f17 85fb   SUB#S 0 0 snc
1f18 e2ff   MOV#S 3 0 sbn
1f19 0200   JMP ac2+0
1f1a 0200   JMP ac2+0
1f1b 0200   JMP ac2+0
1f1c 0200   JMP ac2+0
1f1d 0200   JMP ac2+0
1f1e 0200   JMP ac2+0
1f1f 0200   JMP ac2+0
1f20 0200   JMP ac2+0
1f21 0200   JMP ac2+0
1f22 0200   JMP ac2+0
1f23 0200   JMP ac2+0
1f24 0200   JMP ac2+0
1f25 0200   JMP ac2+0
1f26 0200   JMP ac2+0
1f27 0200   JMP ac2+0
1f28 0200   JMP ac2+0
1f29 0200   JMP ac2+0
1f2a 0200   JMP ac2+0
1f2b 0200   JMP ac2+0
1f2c 0200   JMP ac2+0
1f2d 0200   JMP ac2+0
1f2e 0200   JMP ac2+0
1f2f 0200   JMP ac2+0
1f30 0200   JMP ac2+0
1f31 0200   JMP ac2+0
1f32 0200   JMP ac2+0
1f33 0200   JMP ac2+0
1f34 0200   JMP ac2+0
1f35 0200   JMP ac2+0
1f36 0200   JMP ac2+0
1f37 0200   JMP ac2+0
1f38 0200   JMP ac2+0
1f39 0200   JMP ac2+0
1f3a 0200   JMP ac2+0
1f3b 0200   JMP ac2+0
1f3c 0200   JMP ac2+0
1f3d 0200   JMP ac2+0
1f3e 0200   JMP ac2+0
1f3f 0200   JMP ac2+0
1f40 0200   JMP ac2+0
1f41 0200   JMP ac2+0
1f42 0200   JMP ac2+0
1f43 0200   JMP ac2+0
1f44 0200   JMP ac2+0
1f45 0200   JMP ac2+0
1f46 0200   JMP ac2+0
1f47 0200   JMP ac2+0
1f48 0200   JMP ac2+0
1f49 0200   JMP ac2+0
1f4a 0200   JMP ac2+0
1f4b 0200   JMP ac2+0
1f4c 0200   JMP ac2+0
1f4d 0200   JMP ac2+0
1f4e 0200   JMP ac2+0
1f4f 0200   JMP ac2+0
1f50 0200   JMP ac2+0
1f51 0200   JMP ac2+0
1f52 0200   JMP ac2+0
1f53 0200   JMP ac2+0
1f54 0200   JMP ac2+0
1f55 0200   JMP ac2+0
1f56 0200   JMP ac2+0
1f57 0200   JMP ac2+0
1f58 0200   JMP ac2+0
1f59 0200   JMP ac2+0
1f5a 0200   JMP ac2+0
1f5b 0200   JMP ac2+0
1f5c 0200   JMP ac2+0
1f5d 0200   JMP ac2+0
1f5e 0200   JMP ac2+0
1f5f 0200   JMP ac2+0
1f60 0200   JMP ac2+0
1f61 0200   JMP ac2+0
1f62 0200   JMP ac2+0
1f63 0200   JMP ac2+0
1f64 0200   JMP ac2+0
1f65 0200   JMP ac2+0
1f66 0200   JMP ac2+0
1f67 0200   JMP ac2+0
1f68 0200   JMP ac2+0
1f69 0200   JMP ac2+0
1f6a 0200   JMP ac2+0
1f6b 0200   JMP ac2+0
1f6c 0200   JMP ac2+0
1f6d 0200   JMP ac2+0
1f6e 0200   JMP ac2+0
1f6f 0200   JMP ac2+0
1f70 0200   JMP ac2+0
1f71 0200   JMP ac2+0
1f72 0200   JMP ac2+0
1f73 0200   JMP ac2+0
1f74 0200   JMP ac2+0
1f75 0200   JMP ac2+0
1f76 0200   JMP ac2+0
1f77 0200   JMP ac2+0
1f78 0200   JMP ac2+0
1f79 0200   JMP ac2+0
1f7a 0200   JMP ac2+0
1f7b 0200   JMP ac2+0
1f7c 0200   JMP ac2+0
1f7d 0200   JMP ac2+0
1f7e 0200   JMP ac2+0
1f7f 0200   JMP ac2+0
1f80 0200   JMP ac2+0
1f81 0200   JMP ac2+0
1f82 0200   JMP ac2+0
1f83 0200   JMP ac2+0
1f84 0200   JMP ac2+0
1f85 0200   JMP ac2+0
1f86 0200   JMP ac2+0
1f87 0200   JMP ac2+0
1f88 0200   JMP ac2+0
1f89 0200   JMP ac2+0
1f8a 0200   JMP ac2+0
1f8b 0200   JMP ac2+0
1f8c 0200   JMP ac2+0
1f8d 0200   JMP ac2+0
1f8e 0200   JMP ac2+0
1f8f 0200   JMP ac2+0
1f90 0200   JMP ac2+0
1f91 0200   JMP ac2+0
1f92 0200   JMP ac2+0
1f93 0200   JMP ac2+0
1f94 0200   JMP ac2+0
1f95 0200   JMP ac2+0
1f96 0200   JMP ac2+0
1f97 0200   JMP ac2+0
1f98 0200   JMP ac2+0
1f99 0200   JMP ac2+0
1f9a 0200   JMP ac2+0
1f9b 0200   JMP ac2+0
1f9c 0200   JMP ac2+0
1f9d 0200   JMP ac2+0
1f9e 594a   STA 3 pc+4a ; 1fe8
1f9f 0907   JMS pc+7 ; 1fa6
1fa0 f2c0   MOVS 3 2
1fa1 0905   JMS pc+5 ; 1fa6
1fa2 f6c0   ADDS 3 2
1fa3 c600   ADD 2 0
1fa4 0544   JMP @pc+44 ; @1fe8
1fa5 0004   JMP 4
1fa6 5943   STA 3 pc+43 ; 1fe9
1fa7 3943   LDA 3 pc+43 ; 1fea
1fa8 fa43   MOVL 3 3 snc
1fa9 8208   MOV# 0 0
1faa 678a   SKPDN 0 a
1fab 01ff   JMP pc-1 ; 1faa
1fac 794a   DIAS 3 a
1fad 053c   JMP @pc+3c ; @1fe9
1fae 6788   SKPDN 0 8
1faf 01ff   JMP pc-1 ; 1fae
1fb0 7948   DIAS 3 8
1fb1 0538   JMP @pc+38 ; @1fe9
1fb2 65bf   IORST
1fb3 613f   READS0
1fb4 4136   STA 0 pc+36 ; 1fea
1fb5 6048   NIOS 0 8
1fb6 604a   NIOS 0 a
1fb7 09ef   JMS pc-11 ; 1fa6
1fb8 f2c5   MOVS 3 2 snr
1fb9 01fe   JMP pc-2 ; 1fb7
1fba 09ec   JMS pc-14 ; 1fa6
1fbb f6c0   ADDS 3 2
1fbc c200   MOV 2 0
1fbd ca00   MOV 2 1
1fbe 09e0   JMS pc-20 ; 1f9e
1fbf 513f   STA 2 pc+3f ; 1ffe
1fc0 09de   JMS pc-22 ; 1f9e
1fc1 aa4b   MOV#L 1 1 snc
1fc2 0116   JMP pc+16 ; 1fd8
1fc3 4928   STA 1 pc+28 ; 1feb
1fc4 3125   LDA 2 pc+25 ; 1fe9
1fc5 39e0   LDA 3 pc-20 ; 1fa5
1fc6 f500   DIC 2 0
1fc7 3937   LDA 3 pc+37 ; 1ffe
1fc8 bd00   SUB 1 3
1fc9 f413   DOB 2 13
1fca 010c   JMP pc+c ; 1fd6
1fcb 3121   LDA 2 pc+21 ; 1fec
1fcc ce1b   ADD# 2 1 snc
1fcd 111e   ISZ pc+1e ; 1feb
1fce ce12   ADD 2 1 szc
1fcf aa4b   MOV#L 1 1 snc
1fd0 09ce   JMS pc-32 ; 1f9e
1fd1 552d   STA 2 @pc+2d ; @1ffe
1fd2 112c   ISZ pc+2c ; 1ffe
1fd3 1118   ISZ pc+18 ; 1feb
1fd4 01fb   JMP pc-5 ; 1fcf
1fd5 8204   MOV 0 0 szr
1fd6 663f   HALT
1fd7 01e0   JMP pc-20 ; 1fb7
1fd8 aa94   MOVR 1 1 szr
1fd9 0109   JMP pc+9 ; 1fe2
1fda 8204   MOV 0 0 szr
1fdb 01fb   JMP pc-5 ; 1fd6
1fdc 3122   LDA 2 pc+22 ; 1ffe
1fdd 65bf   IORST
1fde d24b   MOV#L 2 2 snc
1fdf 0200   JMP ac2+0
1fe0 663f   HALT
1fe1 01ff   JMP pc-1 ; 1fe0
1fe2 09c4   JMS pc-3c ; 1fa6
1fe3 2104   LDA 0 pc+4 ; 1fe7
1fe4 9d04   SUB 0 3 szr
1fe5 01fd   JMP pc-3 ; 1fe2
1fe6 01d1   JMP pc-2f ; 1fb7
1fe7 00ff   JMP ff
1fe8 1fc1   DSZ @ac3-3f
1fe9 1fa2   DSZ @ac3-5e
1fea 0000   JMP 0
1feb 0000   JMP 0
1fec 0010   JMP 10
1fed 0000   JMP 0
1fee 0000   JMP 0
1fef 0000   JMP 0
1ff0 0000   JMP 0
1ff1 0000   JMP 0
1ff2 0000   JMP 0
1ff3 0000   JMP 0
1ff4 0000   JMP 0
1ff5 0000   JMP 0
1ff6 0000   JMP 0
1f